ARM GAS  C:\Users\sepp2\AppData\Local\Temp\ccFZUYtL.s 			page 1


   1              		.syntax unified
   2              		.cpu cortex-m3
   3              		.fpu softvfp
   4              		.eabi_attribute 20, 1
   5              		.eabi_attribute 21, 1
   6              		.eabi_attribute 23, 3
   7              		.eabi_attribute 24, 1
   8              		.eabi_attribute 25, 1
   9              		.eabi_attribute 26, 1
  10              		.eabi_attribute 30, 1
  11              		.eabi_attribute 34, 1
  12              		.eabi_attribute 18, 4
  13              		.thumb
  14              		.syntax unified
  15              		.file	"Helpers.c"
  16              		.text
  17              	.Ltext0:
  18              		.cfi_sections	.debug_frame
  19              		.section	.text.playTone,"ax",%progbits
  20              		.align	2
  21              		.global	playTone
  22              		.thumb
  23              		.thumb_func
  24              		.type	playTone, %function
  25              	playTone:
  26              	.LFB63:
  27              		.file 1 "Helpers.c"
   1:Helpers.c     **** /* ========================================
   2:Helpers.c     ****  *
   3:Helpers.c     ****  * Copyright YOUR COMPANY, THE YEAR
   4:Helpers.c     ****  * All Rights Reserved
   5:Helpers.c     ****  * UNPUBLISHED, LICENSED SOFTWARE.
   6:Helpers.c     ****  *
   7:Helpers.c     ****  * CONFIDENTIAL AND PROPRIETARY INFORMATION
   8:Helpers.c     ****  * WHICH IS THE PROPERTY OF your company.
   9:Helpers.c     ****  *
  10:Helpers.c     ****  * ========================================
  11:Helpers.c     **** */
  12:Helpers.c     **** 
  13:Helpers.c     **** /* [] END OF FILE */
  14:Helpers.c     **** #include "project.h"
  15:Helpers.c     **** #include "Helpers.h"
  16:Helpers.c     **** 
  17:Helpers.c     **** //                        c'=0                  d'=1             e'=2                f'=3          
  18:Helpers.c     **** int tones[13][4] = {{1515,757,378,189},{1346,673,336,168},{1204,602,301,150},{1130,565,282,141},{10
  19:Helpers.c     **** 
  20:Helpers.c     **** 
  21:Helpers.c     **** void playTone(int tone,int time){
  28              		.loc 1 21 0
  29              		.cfi_startproc
  30              		@ args = 0, pretend = 0, frame = 0
  31              		@ frame_needed = 0, uses_anonymous_args = 0
  32              	.LVL0:
  33 0000 38B5     		push	{r3, r4, r5, lr}
  34              		.cfi_def_cfa_offset 16
  35              		.cfi_offset 3, -16
  36              		.cfi_offset 4, -12
ARM GAS  C:\Users\sepp2\AppData\Local\Temp\ccFZUYtL.s 			page 2


  37              		.cfi_offset 5, -8
  38              		.cfi_offset 14, -4
  39 0002 0D46     		mov	r5, r1
  22:Helpers.c     ****     WaveDAC8_1_Wave1Setup(WaveDAC8_1_SINE_WAVE,tones[tone][0]);
  40              		.loc 1 22 0
  41 0004 0B4B     		ldr	r3, .L3
  42 0006 0001     		lsls	r0, r0, #4
  43              	.LVL1:
  44 0008 1C18     		adds	r4, r3, r0
  45 000a 195A     		ldrh	r1, [r3, r0]
  46              	.LVL2:
  47 000c 0020     		movs	r0, #0
  48 000e FFF7FEFF 		bl	WaveDAC8_1_Wave1Setup
  49              	.LVL3:
  23:Helpers.c     ****     WaveDAC8_2_Wave1Setup(WaveDAC8_2_SINE_WAVE,tones[tone][1]);
  50              		.loc 1 23 0
  51 0012 A188     		ldrh	r1, [r4, #4]
  52 0014 0020     		movs	r0, #0
  53 0016 FFF7FEFF 		bl	WaveDAC8_2_Wave1Setup
  54              	.LVL4:
  24:Helpers.c     ****     WaveDAC8_3_Wave1Setup(WaveDAC8_3_SINE_WAVE,tones[tone][2]);
  55              		.loc 1 24 0
  56 001a 2189     		ldrh	r1, [r4, #8]
  57 001c 0020     		movs	r0, #0
  58 001e FFF7FEFF 		bl	WaveDAC8_3_Wave1Setup
  59              	.LVL5:
  25:Helpers.c     ****     WaveDAC8_4_Wave1Setup(WaveDAC8_4_SINE_WAVE,tones[tone][3]);
  60              		.loc 1 25 0
  61 0022 A189     		ldrh	r1, [r4, #12]
  62 0024 0020     		movs	r0, #0
  63 0026 FFF7FEFF 		bl	WaveDAC8_4_Wave1Setup
  64              	.LVL6:
  26:Helpers.c     ****     CyDelay(time);
  65              		.loc 1 26 0
  66 002a 2846     		mov	r0, r5
  67 002c FFF7FEFF 		bl	CyDelay
  68              	.LVL7:
  69 0030 38BD     		pop	{r3, r4, r5, pc}
  70              	.LVL8:
  71              	.L4:
  72 0032 00BF     		.align	2
  73              	.L3:
  74 0034 00000000 		.word	.LANCHOR0
  75              		.cfi_endproc
  76              	.LFE63:
  77              		.size	playTone, .-playTone
  78              		.section	.text.sleep_DACs,"ax",%progbits
  79              		.align	2
  80              		.global	sleep_DACs
  81              		.thumb
  82              		.thumb_func
  83              		.type	sleep_DACs, %function
  84              	sleep_DACs:
  85              	.LFB64:
  27:Helpers.c     **** }
  28:Helpers.c     **** 
  29:Helpers.c     **** void sleep_DACs(int time){
ARM GAS  C:\Users\sepp2\AppData\Local\Temp\ccFZUYtL.s 			page 3


  86              		.loc 1 29 0
  87              		.cfi_startproc
  88              		@ args = 0, pretend = 0, frame = 0
  89              		@ frame_needed = 0, uses_anonymous_args = 0
  90              	.LVL9:
  91 0000 10B5     		push	{r4, lr}
  92              		.cfi_def_cfa_offset 8
  93              		.cfi_offset 4, -8
  94              		.cfi_offset 14, -4
  95 0002 0446     		mov	r4, r0
  30:Helpers.c     ****     WaveDAC8_1_Stop();
  96              		.loc 1 30 0
  97 0004 FFF7FEFF 		bl	WaveDAC8_1_Stop
  98              	.LVL10:
  31:Helpers.c     ****     WaveDAC8_2_Stop();
  99              		.loc 1 31 0
 100 0008 FFF7FEFF 		bl	WaveDAC8_2_Stop
 101              	.LVL11:
  32:Helpers.c     ****     WaveDAC8_3_Stop();
 102              		.loc 1 32 0
 103 000c FFF7FEFF 		bl	WaveDAC8_3_Stop
 104              	.LVL12:
  33:Helpers.c     ****     WaveDAC8_4_Stop();
 105              		.loc 1 33 0
 106 0010 FFF7FEFF 		bl	WaveDAC8_4_Stop
 107              	.LVL13:
  34:Helpers.c     ****     CyDelay(time);
 108              		.loc 1 34 0
 109 0014 2046     		mov	r0, r4
 110 0016 FFF7FEFF 		bl	CyDelay
 111              	.LVL14:
  35:Helpers.c     ****     WaveDAC8_1_Start();
 112              		.loc 1 35 0
 113 001a FFF7FEFF 		bl	WaveDAC8_1_Start
 114              	.LVL15:
  36:Helpers.c     ****     WaveDAC8_2_Start();
 115              		.loc 1 36 0
 116 001e FFF7FEFF 		bl	WaveDAC8_2_Start
 117              	.LVL16:
  37:Helpers.c     ****     WaveDAC8_3_Start();
 118              		.loc 1 37 0
 119 0022 FFF7FEFF 		bl	WaveDAC8_3_Start
 120              	.LVL17:
  38:Helpers.c     ****     WaveDAC8_4_Start();
 121              		.loc 1 38 0
 122 0026 FFF7FEFF 		bl	WaveDAC8_4_Start
 123              	.LVL18:
 124 002a 10BD     		pop	{r4, pc}
 125              		.cfi_endproc
 126              	.LFE64:
 127              		.size	sleep_DACs, .-sleep_DACs
 128              		.section	.text.init_dacs,"ax",%progbits
 129              		.align	2
 130              		.global	init_dacs
 131              		.thumb
 132              		.thumb_func
 133              		.type	init_dacs, %function
ARM GAS  C:\Users\sepp2\AppData\Local\Temp\ccFZUYtL.s 			page 4


 134              	init_dacs:
 135              	.LFB65:
  39:Helpers.c     **** }
  40:Helpers.c     **** 
  41:Helpers.c     **** /*
  42:Helpers.c     **** void fade_out(){
  43:Helpers.c     ****     WaveDAC8_1_
  44:Helpers.c     **** }
  45:Helpers.c     **** */
  46:Helpers.c     **** 
  47:Helpers.c     **** void init_dacs(){
 136              		.loc 1 47 0
 137              		.cfi_startproc
 138              		@ args = 0, pretend = 0, frame = 0
 139              		@ frame_needed = 0, uses_anonymous_args = 0
 140 0000 08B5     		push	{r3, lr}
 141              		.cfi_def_cfa_offset 8
 142              		.cfi_offset 3, -8
 143              		.cfi_offset 14, -4
  48:Helpers.c     ****     WaveDAC8_1_Init();
 144              		.loc 1 48 0
 145 0002 FFF7FEFF 		bl	WaveDAC8_1_Init
 146              	.LVL19:
  49:Helpers.c     ****     WaveDAC8_2_Init();
 147              		.loc 1 49 0
 148 0006 FFF7FEFF 		bl	WaveDAC8_2_Init
 149              	.LVL20:
  50:Helpers.c     ****     WaveDAC8_3_Init();
 150              		.loc 1 50 0
 151 000a FFF7FEFF 		bl	WaveDAC8_3_Init
 152              	.LVL21:
  51:Helpers.c     ****     WaveDAC8_4_Init();
 153              		.loc 1 51 0
 154 000e FFF7FEFF 		bl	WaveDAC8_4_Init
 155              	.LVL22:
 156 0012 08BD     		pop	{r3, pc}
 157              		.cfi_endproc
 158              	.LFE65:
 159              		.size	init_dacs, .-init_dacs
 160              		.global	tones
 161              		.data
 162              		.align	2
 163              		.set	.LANCHOR0,. + 0
 164              		.type	tones, %object
 165              		.size	tones, 208
 166              	tones:
 167 0000 EB050000 		.word	1515
 168 0004 F5020000 		.word	757
 169 0008 7A010000 		.word	378
 170 000c BD000000 		.word	189
 171 0010 42050000 		.word	1346
 172 0014 A1020000 		.word	673
 173 0018 50010000 		.word	336
 174 001c A8000000 		.word	168
 175 0020 B4040000 		.word	1204
 176 0024 5A020000 		.word	602
 177 0028 2D010000 		.word	301
ARM GAS  C:\Users\sepp2\AppData\Local\Temp\ccFZUYtL.s 			page 5


 178 002c 96000000 		.word	150
 179 0030 6A040000 		.word	1130
 180 0034 35020000 		.word	565
 181 0038 1A010000 		.word	282
 182 003c 8D000000 		.word	141
 183 0040 ED030000 		.word	1005
 184 0044 F6010000 		.word	502
 185 0048 FB000000 		.word	251
 186 004c 7D000000 		.word	125
 187 0050 89030000 		.word	905
 188 0054 C4010000 		.word	452
 189 0058 E2000000 		.word	226
 190 005c 71000000 		.word	113
 191 0060 28030000 		.word	808
 192 0064 94010000 		.word	404
 193 0068 CA000000 		.word	202
 194 006c 65000000 		.word	101
 195 0070 F2020000 		.word	754
 196 0074 79010000 		.word	377
 197 0078 BC000000 		.word	188
 198 007c 5E000000 		.word	94
 199 0080 A1020000 		.word	673
 200 0084 50010000 		.word	336
 201 0088 A8000000 		.word	168
 202 008c 54000000 		.word	84
 203 0090 5A020000 		.word	602
 204 0094 2D010000 		.word	301
 205 0098 96000000 		.word	150
 206 009c 4B000000 		.word	75
 207 00a0 35020000 		.word	565
 208 00a4 1A010000 		.word	282
 209 00a8 8D000000 		.word	141
 210 00ac 47000000 		.word	71
 211 00b0 F6010000 		.word	502
 212 00b4 FB000000 		.word	251
 213 00b8 7D000000 		.word	125
 214 00bc 3F000000 		.word	63
 215 00c0 C4010000 		.word	452
 216 00c4 E2000000 		.word	226
 217 00c8 71000000 		.word	113
 218 00cc 39000000 		.word	57
 219              		.text
 220              	.Letext0:
 221              		.file 2 "c:\\program files (x86)\\cypress\\psoc creator\\4.4\\psoc creator\\import\\gnu\\arm\\5.4.
 222              		.file 3 "c:\\program files (x86)\\cypress\\psoc creator\\4.4\\psoc creator\\import\\gnu\\arm\\5.4.
 223              		.file 4 "Generated_Source\\PSoC5/core_cm3.h"
 224              		.file 5 "Generated_Source\\PSoC5/WaveDAC8_1.h"
 225              		.file 6 "Generated_Source\\PSoC5/WaveDAC8_2.h"
 226              		.file 7 "Generated_Source\\PSoC5/WaveDAC8_3.h"
 227              		.file 8 "Generated_Source\\PSoC5/WaveDAC8_4.h"
 228              		.file 9 "Generated_Source\\PSoC5/CyLib.h"