ARM GAS  C:\Users\sepp2\AppData\Local\Temp\cc3d5cPv.s 			page 1


   1              		.syntax unified
   2              		.cpu cortex-m3
   3              		.fpu softvfp
   4              		.eabi_attribute 20, 1
   5              		.eabi_attribute 21, 1
   6              		.eabi_attribute 23, 3
   7              		.eabi_attribute 24, 1
   8              		.eabi_attribute 25, 1
   9              		.eabi_attribute 26, 1
  10              		.eabi_attribute 30, 1
  11              		.eabi_attribute 34, 1
  12              		.eabi_attribute 18, 4
  13              		.thumb
  14              		.syntax unified
  15              		.file	"Music_Pieces.c"
  16              		.text
  17              	.Ltext0:
  18              		.cfi_sections	.debug_frame
  19              		.section	.text.play_Narcotic,"ax",%progbits
  20              		.align	2
  21              		.global	play_Narcotic
  22              		.thumb
  23              		.thumb_func
  24              		.type	play_Narcotic, %function
  25              	play_Narcotic:
  26              	.LFB63:
  27              		.file 1 "Music_Pieces.c"
   1:Music_Pieces.c **** /* ========================================
   2:Music_Pieces.c ****  *
   3:Music_Pieces.c ****  * Copyright YOUR COMPANY, THE YEAR
   4:Music_Pieces.c ****  * All Rights Reserved
   5:Music_Pieces.c ****  * UNPUBLISHED, LICENSED SOFTWARE.
   6:Music_Pieces.c ****  *
   7:Music_Pieces.c ****  * CONFIDENTIAL AND PROPRIETARY INFORMATION
   8:Music_Pieces.c ****  * WHICH IS THE PROPERTY OF your company.
   9:Music_Pieces.c ****  *
  10:Music_Pieces.c ****  * ========================================
  11:Music_Pieces.c **** */
  12:Music_Pieces.c **** 
  13:Music_Pieces.c **** /* [] END OF FILE */
  14:Music_Pieces.c **** #include <math.h>
  15:Music_Pieces.c **** #include "project.h"
  16:Music_Pieces.c **** 
  17:Music_Pieces.c **** #include "Music_Pieces.h"
  18:Music_Pieces.c **** #include "Helpers.h"
  19:Music_Pieces.c **** 
  20:Music_Pieces.c **** int idle_sleep = 10;
  21:Music_Pieces.c **** void play_Narcotic(){
  28              		.loc 1 21 0
  29              		.cfi_startproc
  30              		@ args = 0, pretend = 0, frame = 0
  31              		@ frame_needed = 0, uses_anonymous_args = 0
  32 0000 38B5     		push	{r3, r4, r5, lr}
  33              		.cfi_def_cfa_offset 16
  34              		.cfi_offset 3, -16
  35              		.cfi_offset 4, -12
  36              		.cfi_offset 5, -8
ARM GAS  C:\Users\sepp2\AppData\Local\Temp\cc3d5cPv.s 			page 2


  37              		.cfi_offset 14, -4
  22:Music_Pieces.c ****     init_dacs();
  38              		.loc 1 22 0
  39 0002 FFF7FEFF 		bl	init_dacs
  40              	.LVL0:
  23:Music_Pieces.c ****     
  24:Music_Pieces.c ****     int bpm = 102;
  25:Music_Pieces.c ****     //int viertel = round(60/bpm*1000);
  26:Music_Pieces.c ****     int viertel = 450;
  27:Music_Pieces.c ****     int achtel = round(viertel/2);
  28:Music_Pieces.c ****     int sechsentel = round(viertel/4);
  29:Music_Pieces.c ****     
  30:Music_Pieces.c ****     playTone(1,achtel);
  41              		.loc 1 30 0
  42 0006 E121     		movs	r1, #225
  43 0008 0120     		movs	r0, #1
  44 000a FFF7FEFF 		bl	playTone
  45              	.LVL1:
  31:Music_Pieces.c ****     sleep_DACs(idle_sleep);
  46              		.loc 1 31 0
  47 000e D64C     		ldr	r4, .L10
  48 0010 2068     		ldr	r0, [r4]
  49 0012 FFF7FEFF 		bl	sleep_DACs
  50              	.LVL2:
  32:Music_Pieces.c ****     playTone(2,achtel);
  51              		.loc 1 32 0
  52 0016 E121     		movs	r1, #225
  53 0018 0220     		movs	r0, #2
  54 001a FFF7FEFF 		bl	playTone
  55              	.LVL3:
  33:Music_Pieces.c ****     playTone(1,achtel);
  56              		.loc 1 33 0
  57 001e E121     		movs	r1, #225
  58 0020 0120     		movs	r0, #1
  59 0022 FFF7FEFF 		bl	playTone
  60              	.LVL4:
  34:Music_Pieces.c ****     sleep_DACs(idle_sleep);
  61              		.loc 1 34 0
  62 0026 2068     		ldr	r0, [r4]
  63 0028 FFF7FEFF 		bl	sleep_DACs
  64              	.LVL5:
  35:Music_Pieces.c ****     playTone(2,achtel);
  65              		.loc 1 35 0
  66 002c E121     		movs	r1, #225
  67 002e 0220     		movs	r0, #2
  68 0030 FFF7FEFF 		bl	playTone
  69              	.LVL6:
  36:Music_Pieces.c ****     playTone(1,achtel);
  70              		.loc 1 36 0
  71 0034 E121     		movs	r1, #225
  72 0036 0120     		movs	r0, #1
  73 0038 FFF7FEFF 		bl	playTone
  74              	.LVL7:
  37:Music_Pieces.c ****     sleep_DACs(idle_sleep);
  75              		.loc 1 37 0
  76 003c 2068     		ldr	r0, [r4]
  77 003e FFF7FEFF 		bl	sleep_DACs
ARM GAS  C:\Users\sepp2\AppData\Local\Temp\cc3d5cPv.s 			page 3


  78              	.LVL8:
  38:Music_Pieces.c ****     playTone(2,achtel);
  79              		.loc 1 38 0
  80 0042 E121     		movs	r1, #225
  81 0044 0220     		movs	r0, #2
  82 0046 FFF7FEFF 		bl	playTone
  83              	.LVL9:
  39:Music_Pieces.c ****     playTone(1,sechsentel);
  84              		.loc 1 39 0
  85 004a 7021     		movs	r1, #112
  86 004c 0120     		movs	r0, #1
  87 004e FFF7FEFF 		bl	playTone
  88              	.LVL10:
  40:Music_Pieces.c ****     playTone(3,sechsentel);
  89              		.loc 1 40 0
  90 0052 7021     		movs	r1, #112
  91 0054 0320     		movs	r0, #3
  92 0056 FFF7FEFF 		bl	playTone
  93              	.LVL11:
  41:Music_Pieces.c ****     playTone(3,achtel);
  94              		.loc 1 41 0
  95 005a E121     		movs	r1, #225
  96 005c 0320     		movs	r0, #3
  97 005e FFF7FEFF 		bl	playTone
  98              	.LVL12:
  42:Music_Pieces.c ****     playTone(2,achtel);
  99              		.loc 1 42 0
 100 0062 E121     		movs	r1, #225
 101 0064 0220     		movs	r0, #2
 102 0066 FFF7FEFF 		bl	playTone
 103              	.LVL13:
  43:Music_Pieces.c ****     sleep_DACs(idle_sleep);
 104              		.loc 1 43 0
 105 006a 2068     		ldr	r0, [r4]
 106 006c FFF7FEFF 		bl	sleep_DACs
 107              	.LVL14:
  44:Music_Pieces.c ****     playTone(3,achtel);
 108              		.loc 1 44 0
 109 0070 E121     		movs	r1, #225
 110 0072 0320     		movs	r0, #3
 111 0074 FFF7FEFF 		bl	playTone
 112              	.LVL15:
  45:Music_Pieces.c ****     playTone(2,achtel);
 113              		.loc 1 45 0
 114 0078 E121     		movs	r1, #225
 115 007a 0220     		movs	r0, #2
 116 007c FFF7FEFF 		bl	playTone
 117              	.LVL16:
  46:Music_Pieces.c ****     sleep_DACs(idle_sleep);
 118              		.loc 1 46 0
 119 0080 2068     		ldr	r0, [r4]
 120 0082 FFF7FEFF 		bl	sleep_DACs
 121              	.LVL17:
  47:Music_Pieces.c ****     playTone(3,achtel);
 122              		.loc 1 47 0
 123 0086 E121     		movs	r1, #225
 124 0088 0320     		movs	r0, #3
ARM GAS  C:\Users\sepp2\AppData\Local\Temp\cc3d5cPv.s 			page 4


 125 008a FFF7FEFF 		bl	playTone
 126              	.LVL18:
  48:Music_Pieces.c ****     playTone(2,achtel);
 127              		.loc 1 48 0
 128 008e E121     		movs	r1, #225
 129 0090 0220     		movs	r0, #2
 130 0092 FFF7FEFF 		bl	playTone
 131              	.LVL19:
  49:Music_Pieces.c ****     sleep_DACs(idle_sleep);
 132              		.loc 1 49 0
 133 0096 2068     		ldr	r0, [r4]
 134 0098 FFF7FEFF 		bl	sleep_DACs
 135              	.LVL20:
  50:Music_Pieces.c ****     playTone(3,achtel);
 136              		.loc 1 50 0
 137 009c E121     		movs	r1, #225
 138 009e 0320     		movs	r0, #3
 139 00a0 FFF7FEFF 		bl	playTone
 140              	.LVL21:
  51:Music_Pieces.c ****     playTone(4,sechsentel);
 141              		.loc 1 51 0
 142 00a4 7021     		movs	r1, #112
 143 00a6 0420     		movs	r0, #4
 144 00a8 FFF7FEFF 		bl	playTone
 145              	.LVL22:
  52:Music_Pieces.c ****     playTone(5,sechsentel);
 146              		.loc 1 52 0
 147 00ac 7021     		movs	r1, #112
 148 00ae 0520     		movs	r0, #5
 149 00b0 FFF7FEFF 		bl	playTone
 150              	.LVL23:
  53:Music_Pieces.c ****     playTone(5,achtel);
 151              		.loc 1 53 0
 152 00b4 E121     		movs	r1, #225
 153 00b6 0520     		movs	r0, #5
 154 00b8 FFF7FEFF 		bl	playTone
 155              	.LVL24:
  54:Music_Pieces.c ****     playTone(4,achtel);
 156              		.loc 1 54 0
 157 00bc E121     		movs	r1, #225
 158 00be 0420     		movs	r0, #4
 159 00c0 FFF7FEFF 		bl	playTone
 160              	.LVL25:
  55:Music_Pieces.c ****     sleep_DACs(idle_sleep);
 161              		.loc 1 55 0
 162 00c4 2068     		ldr	r0, [r4]
 163 00c6 FFF7FEFF 		bl	sleep_DACs
 164              	.LVL26:
  56:Music_Pieces.c ****     playTone(5,achtel);
 165              		.loc 1 56 0
 166 00ca E121     		movs	r1, #225
 167 00cc 0520     		movs	r0, #5
 168 00ce FFF7FEFF 		bl	playTone
 169              	.LVL27:
  57:Music_Pieces.c ****     playTone(4,achtel);
 170              		.loc 1 57 0
 171 00d2 E121     		movs	r1, #225
ARM GAS  C:\Users\sepp2\AppData\Local\Temp\cc3d5cPv.s 			page 5


 172 00d4 0420     		movs	r0, #4
 173 00d6 FFF7FEFF 		bl	playTone
 174              	.LVL28:
  58:Music_Pieces.c ****     sleep_DACs(idle_sleep);
 175              		.loc 1 58 0
 176 00da 2068     		ldr	r0, [r4]
 177 00dc FFF7FEFF 		bl	sleep_DACs
 178              	.LVL29:
  59:Music_Pieces.c ****     playTone(5,achtel);
 179              		.loc 1 59 0
 180 00e0 E121     		movs	r1, #225
 181 00e2 0520     		movs	r0, #5
 182 00e4 FFF7FEFF 		bl	playTone
 183              	.LVL30:
  60:Music_Pieces.c ****     playTone(4,achtel);
 184              		.loc 1 60 0
 185 00e8 E121     		movs	r1, #225
 186 00ea 0420     		movs	r0, #4
 187 00ec FFF7FEFF 		bl	playTone
 188              	.LVL31:
  61:Music_Pieces.c ****     sleep_DACs(idle_sleep);
 189              		.loc 1 61 0
 190 00f0 2068     		ldr	r0, [r4]
 191 00f2 FFF7FEFF 		bl	sleep_DACs
 192              	.LVL32:
  62:Music_Pieces.c ****     playTone(5,achtel);
 193              		.loc 1 62 0
 194 00f6 E121     		movs	r1, #225
 195 00f8 0520     		movs	r0, #5
 196 00fa FFF7FEFF 		bl	playTone
 197              	.LVL33:
  63:Music_Pieces.c ****     playTone(4,sechsentel);
 198              		.loc 1 63 0
 199 00fe 7021     		movs	r1, #112
 200 0100 0420     		movs	r0, #4
 201 0102 FFF7FEFF 		bl	playTone
 202              	.LVL34:
  64:Music_Pieces.c ****     playTone(2,sechsentel);
 203              		.loc 1 64 0
 204 0106 7021     		movs	r1, #112
 205 0108 0220     		movs	r0, #2
 206 010a FFF7FEFF 		bl	playTone
 207              	.LVL35:
  65:Music_Pieces.c ****     playTone(2,achtel);
 208              		.loc 1 65 0
 209 010e E121     		movs	r1, #225
 210 0110 0220     		movs	r0, #2
 211 0112 FFF7FEFF 		bl	playTone
 212              	.LVL36:
  66:Music_Pieces.c ****     playTone(1,achtel);
 213              		.loc 1 66 0
 214 0116 E121     		movs	r1, #225
 215 0118 0120     		movs	r0, #1
 216 011a FFF7FEFF 		bl	playTone
 217              	.LVL37:
  67:Music_Pieces.c ****     sleep_DACs(idle_sleep);
 218              		.loc 1 67 0
ARM GAS  C:\Users\sepp2\AppData\Local\Temp\cc3d5cPv.s 			page 6


 219 011e 2068     		ldr	r0, [r4]
 220 0120 FFF7FEFF 		bl	sleep_DACs
 221              	.LVL38:
  68:Music_Pieces.c ****     playTone(2,achtel);
 222              		.loc 1 68 0
 223 0124 E121     		movs	r1, #225
 224 0126 0220     		movs	r0, #2
 225 0128 FFF7FEFF 		bl	playTone
 226              	.LVL39:
  69:Music_Pieces.c ****     playTone(1,achtel);
 227              		.loc 1 69 0
 228 012c E121     		movs	r1, #225
 229 012e 0120     		movs	r0, #1
 230 0130 FFF7FEFF 		bl	playTone
 231              	.LVL40:
  70:Music_Pieces.c ****     sleep_DACs(idle_sleep);
 232              		.loc 1 70 0
 233 0134 2068     		ldr	r0, [r4]
 234 0136 FFF7FEFF 		bl	sleep_DACs
 235              	.LVL41:
  71:Music_Pieces.c ****     //
  72:Music_Pieces.c ****     playTone(2,viertel);
 236              		.loc 1 72 0
 237 013a 4FF4E171 		mov	r1, #450
 238 013e 0220     		movs	r0, #2
 239 0140 FFF7FEFF 		bl	playTone
 240              	.LVL42:
  73:Music_Pieces.c ****     playTone(3,viertel);
 241              		.loc 1 73 0
 242 0144 4FF4E171 		mov	r1, #450
 243 0148 0320     		movs	r0, #3
 244 014a FFF7FEFF 		bl	playTone
 245              	.LVL43:
  74:Music_Pieces.c ****     playTone(2,viertel);
 246              		.loc 1 74 0
 247 014e 4FF4E171 		mov	r1, #450
 248 0152 0220     		movs	r0, #2
 249 0154 FFF7FEFF 		bl	playTone
 250              	.LVL44:
 251              	.LBB2:
  75:Music_Pieces.c ****     //
  76:Music_Pieces.c ****     for (int rep=0; rep <2; rep++){
 252              		.loc 1 76 0
 253 0158 0025     		movs	r5, #0
 254 015a 00E1     		b	.L2
 255              	.LVL45:
 256              	.L8:
  77:Music_Pieces.c ****     if (rep == 1) sleep_DACs(viertel);
 257              		.loc 1 77 0
 258 015c 012D     		cmp	r5, #1
 259 015e 03D1     		bne	.L3
 260              		.loc 1 77 0 is_stmt 0 discriminator 1
 261 0160 4FF4E170 		mov	r0, #450
 262 0164 FFF7FEFF 		bl	sleep_DACs
 263              	.LVL46:
 264              	.L3:
  78:Music_Pieces.c ****     sleep_DACs(achtel);
ARM GAS  C:\Users\sepp2\AppData\Local\Temp\cc3d5cPv.s 			page 7


 265              		.loc 1 78 0 is_stmt 1
 266 0168 E120     		movs	r0, #225
 267 016a FFF7FEFF 		bl	sleep_DACs
 268              	.LVL47:
  79:Music_Pieces.c ****     playTone(4,sechsentel);
 269              		.loc 1 79 0
 270 016e 7021     		movs	r1, #112
 271 0170 0420     		movs	r0, #4
 272 0172 FFF7FEFF 		bl	playTone
 273              	.LVL48:
  80:Music_Pieces.c ****     playTone(7,sechsentel);
 274              		.loc 1 80 0
 275 0176 7021     		movs	r1, #112
 276 0178 0720     		movs	r0, #7
 277 017a FFF7FEFF 		bl	playTone
 278              	.LVL49:
  81:Music_Pieces.c ****     sleep_DACs(idle_sleep);
 279              		.loc 1 81 0
 280 017e 7A4C     		ldr	r4, .L10
 281 0180 2068     		ldr	r0, [r4]
 282 0182 FFF7FEFF 		bl	sleep_DACs
 283              	.LVL50:
  82:Music_Pieces.c ****     playTone(9,achtel);
 284              		.loc 1 82 0
 285 0186 E121     		movs	r1, #225
 286 0188 0920     		movs	r0, #9
 287 018a FFF7FEFF 		bl	playTone
 288              	.LVL51:
  83:Music_Pieces.c ****     playTone(9,achtel);
 289              		.loc 1 83 0
 290 018e E121     		movs	r1, #225
 291 0190 0920     		movs	r0, #9
 292 0192 FFF7FEFF 		bl	playTone
 293              	.LVL52:
  84:Music_Pieces.c ****     sleep_DACs(idle_sleep);
 294              		.loc 1 84 0
 295 0196 2068     		ldr	r0, [r4]
 296 0198 FFF7FEFF 		bl	sleep_DACs
 297              	.LVL53:
  85:Music_Pieces.c ****     playTone(8,achtel);
 298              		.loc 1 85 0
 299 019c E121     		movs	r1, #225
 300 019e 0820     		movs	r0, #8
 301 01a0 FFF7FEFF 		bl	playTone
 302              	.LVL54:
  86:Music_Pieces.c ****     playTone(7,sechsentel);
 303              		.loc 1 86 0
 304 01a4 7021     		movs	r1, #112
 305 01a6 0720     		movs	r0, #7
 306 01a8 FFF7FEFF 		bl	playTone
 307              	.LVL55:
  87:Music_Pieces.c ****     playTone(8,sechsentel);
 308              		.loc 1 87 0
 309 01ac 7021     		movs	r1, #112
 310 01ae 0820     		movs	r0, #8
 311 01b0 FFF7FEFF 		bl	playTone
 312              	.LVL56:
ARM GAS  C:\Users\sepp2\AppData\Local\Temp\cc3d5cPv.s 			page 8


  88:Music_Pieces.c ****     playTone(8,viertel);
 313              		.loc 1 88 0
 314 01b4 4FF4E171 		mov	r1, #450
 315 01b8 0820     		movs	r0, #8
 316 01ba FFF7FEFF 		bl	playTone
 317              	.LVL57:
  89:Music_Pieces.c ****     sleep_DACs(achtel);
 318              		.loc 1 89 0
 319 01be E120     		movs	r0, #225
 320 01c0 FFF7FEFF 		bl	sleep_DACs
 321              	.LVL58:
  90:Music_Pieces.c ****     playTone(9,achtel);
 322              		.loc 1 90 0
 323 01c4 E121     		movs	r1, #225
 324 01c6 0920     		movs	r0, #9
 325 01c8 FFF7FEFF 		bl	playTone
 326              	.LVL59:
  91:Music_Pieces.c ****     sleep_DACs(idle_sleep);
 327              		.loc 1 91 0
 328 01cc 2068     		ldr	r0, [r4]
 329 01ce FFF7FEFF 		bl	sleep_DACs
 330              	.LVL60:
  92:Music_Pieces.c ****     playTone(10,achtel);
 331              		.loc 1 92 0
 332 01d2 E121     		movs	r1, #225
 333 01d4 0A20     		movs	r0, #10
 334 01d6 FFF7FEFF 		bl	playTone
 335              	.LVL61:
  93:Music_Pieces.c ****     playTone(9,sechsentel);
 336              		.loc 1 93 0
 337 01da 7021     		movs	r1, #112
 338 01dc 0920     		movs	r0, #9
 339 01de FFF7FEFF 		bl	playTone
 340              	.LVL62:
  94:Music_Pieces.c ****     playTone(10,sechsentel);
 341              		.loc 1 94 0
 342 01e2 7021     		movs	r1, #112
 343 01e4 0A20     		movs	r0, #10
 344 01e6 FFF7FEFF 		bl	playTone
 345              	.LVL63:
  95:Music_Pieces.c ****     playTone(10,sechsentel);
 346              		.loc 1 95 0
 347 01ea 7021     		movs	r1, #112
 348 01ec 0A20     		movs	r0, #10
 349 01ee FFF7FEFF 		bl	playTone
 350              	.LVL64:
  96:Music_Pieces.c ****     playTone(9,sechsentel);
 351              		.loc 1 96 0
 352 01f2 7021     		movs	r1, #112
 353 01f4 0920     		movs	r0, #9
 354 01f6 FFF7FEFF 		bl	playTone
 355              	.LVL65:
  97:Music_Pieces.c ****     playTone(8,achtel);
 356              		.loc 1 97 0
 357 01fa E121     		movs	r1, #225
 358 01fc 0820     		movs	r0, #8
 359 01fe FFF7FEFF 		bl	playTone
ARM GAS  C:\Users\sepp2\AppData\Local\Temp\cc3d5cPv.s 			page 9


 360              	.LVL66:
  98:Music_Pieces.c ****     sleep_DACs(idle_sleep);
 361              		.loc 1 98 0
 362 0202 2068     		ldr	r0, [r4]
 363 0204 FFF7FEFF 		bl	sleep_DACs
 364              	.LVL67:
  99:Music_Pieces.c ****     playTone(7,viertel);
 365              		.loc 1 99 0
 366 0208 4FF4E171 		mov	r1, #450
 367 020c 0720     		movs	r0, #7
 368 020e FFF7FEFF 		bl	playTone
 369              	.LVL68:
 100:Music_Pieces.c ****     //
 101:Music_Pieces.c ****     sleep_DACs(achtel);
 370              		.loc 1 101 0
 371 0212 E120     		movs	r0, #225
 372 0214 FFF7FEFF 		bl	sleep_DACs
 373              	.LVL69:
 102:Music_Pieces.c ****     playTone(7,achtel);
 374              		.loc 1 102 0
 375 0218 E121     		movs	r1, #225
 376 021a 0720     		movs	r0, #7
 377 021c FFF7FEFF 		bl	playTone
 378              	.LVL70:
 103:Music_Pieces.c ****     sleep_DACs(idle_sleep);
 379              		.loc 1 103 0
 380 0220 2068     		ldr	r0, [r4]
 381 0222 FFF7FEFF 		bl	sleep_DACs
 382              	.LVL71:
 104:Music_Pieces.c ****     playTone(7,achtel);
 383              		.loc 1 104 0
 384 0226 E121     		movs	r1, #225
 385 0228 0720     		movs	r0, #7
 386 022a FFF7FEFF 		bl	playTone
 387              	.LVL72:
 105:Music_Pieces.c ****     playTone(5,achtel);
 388              		.loc 1 105 0
 389 022e E121     		movs	r1, #225
 390 0230 0520     		movs	r0, #5
 391 0232 FFF7FEFF 		bl	playTone
 392              	.LVL73:
 106:Music_Pieces.c ****     sleep_DACs(idle_sleep);
 393              		.loc 1 106 0
 394 0236 2068     		ldr	r0, [r4]
 395 0238 FFF7FEFF 		bl	sleep_DACs
 396              	.LVL74:
 107:Music_Pieces.c ****     playTone(7,achtel);
 397              		.loc 1 107 0
 398 023c E121     		movs	r1, #225
 399 023e 0720     		movs	r0, #7
 400 0240 FFF7FEFF 		bl	playTone
 401              	.LVL75:
 108:Music_Pieces.c ****     playTone(8,sechsentel);
 402              		.loc 1 108 0
 403 0244 7021     		movs	r1, #112
 404 0246 0820     		movs	r0, #8
 405 0248 FFF7FEFF 		bl	playTone
ARM GAS  C:\Users\sepp2\AppData\Local\Temp\cc3d5cPv.s 			page 10


 406              	.LVL76:
 109:Music_Pieces.c ****     playTone(9,sechsentel);
 407              		.loc 1 109 0
 408 024c 7021     		movs	r1, #112
 409 024e 0920     		movs	r0, #9
 410 0250 FFF7FEFF 		bl	playTone
 411              	.LVL77:
 110:Music_Pieces.c ****     playTone(9,viertel);
 412              		.loc 1 110 0
 413 0254 4FF4E171 		mov	r1, #450
 414 0258 0920     		movs	r0, #9
 415 025a FFF7FEFF 		bl	playTone
 416              	.LVL78:
 111:Music_Pieces.c ****     //
 112:Music_Pieces.c ****     sleep_DACs(viertel*3);
 417              		.loc 1 112 0
 418 025e 40F24650 		movw	r0, #1350
 419 0262 FFF7FEFF 		bl	sleep_DACs
 420              	.LVL79:
 113:Music_Pieces.c ****     //
 114:Music_Pieces.c ****     sleep_DACs(viertel);
 421              		.loc 1 114 0
 422 0266 4FF4E170 		mov	r0, #450
 423 026a FFF7FEFF 		bl	sleep_DACs
 424              	.LVL80:
 115:Music_Pieces.c ****     sleep_DACs(achtel);
 425              		.loc 1 115 0
 426 026e E120     		movs	r0, #225
 427 0270 FFF7FEFF 		bl	sleep_DACs
 428              	.LVL81:
 116:Music_Pieces.c ****     playTone(4,sechsentel);
 429              		.loc 1 116 0
 430 0274 7021     		movs	r1, #112
 431 0276 0420     		movs	r0, #4
 432 0278 FFF7FEFF 		bl	playTone
 433              	.LVL82:
 117:Music_Pieces.c ****     playTone(7,sechsentel);
 434              		.loc 1 117 0
 435 027c 7021     		movs	r1, #112
 436 027e 0720     		movs	r0, #7
 437 0280 FFF7FEFF 		bl	playTone
 438              	.LVL83:
 118:Music_Pieces.c ****     sleep_DACs(idle_sleep);
 439              		.loc 1 118 0
 440 0284 2068     		ldr	r0, [r4]
 441 0286 FFF7FEFF 		bl	sleep_DACs
 442              	.LVL84:
 119:Music_Pieces.c ****     playTone(9,achtel);
 443              		.loc 1 119 0
 444 028a E121     		movs	r1, #225
 445 028c 0920     		movs	r0, #9
 446 028e FFF7FEFF 		bl	playTone
 447              	.LVL85:
 120:Music_Pieces.c ****     playTone(9,achtel);
 448              		.loc 1 120 0
 449 0292 E121     		movs	r1, #225
 450 0294 0920     		movs	r0, #9
ARM GAS  C:\Users\sepp2\AppData\Local\Temp\cc3d5cPv.s 			page 11


 451 0296 FFF7FEFF 		bl	playTone
 452              	.LVL86:
 121:Music_Pieces.c ****     sleep_DACs(idle_sleep);
 453              		.loc 1 121 0
 454 029a 2068     		ldr	r0, [r4]
 455 029c FFF7FEFF 		bl	sleep_DACs
 456              	.LVL87:
 122:Music_Pieces.c ****     playTone(8,achtel);
 457              		.loc 1 122 0
 458 02a0 E121     		movs	r1, #225
 459 02a2 0820     		movs	r0, #8
 460 02a4 FFF7FEFF 		bl	playTone
 461              	.LVL88:
 123:Music_Pieces.c ****     playTone(7,sechsentel);
 462              		.loc 1 123 0
 463 02a8 7021     		movs	r1, #112
 464 02aa 0720     		movs	r0, #7
 465 02ac FFF7FEFF 		bl	playTone
 466              	.LVL89:
 124:Music_Pieces.c ****     playTone(8,sechsentel);
 467              		.loc 1 124 0
 468 02b0 7021     		movs	r1, #112
 469 02b2 0820     		movs	r0, #8
 470 02b4 FFF7FEFF 		bl	playTone
 471              	.LVL90:
 125:Music_Pieces.c ****     playTone(8,viertel);
 472              		.loc 1 125 0
 473 02b8 4FF4E171 		mov	r1, #450
 474 02bc 0820     		movs	r0, #8
 475 02be FFF7FEFF 		bl	playTone
 476              	.LVL91:
 126:Music_Pieces.c ****     sleep_DACs(achtel);
 477              		.loc 1 126 0
 478 02c2 E120     		movs	r0, #225
 479 02c4 FFF7FEFF 		bl	sleep_DACs
 480              	.LVL92:
 127:Music_Pieces.c ****     playTone(9,achtel);
 481              		.loc 1 127 0
 482 02c8 E121     		movs	r1, #225
 483 02ca 0920     		movs	r0, #9
 484 02cc FFF7FEFF 		bl	playTone
 485              	.LVL93:
 128:Music_Pieces.c ****     sleep_DACs(idle_sleep);
 486              		.loc 1 128 0
 487 02d0 2068     		ldr	r0, [r4]
 488 02d2 FFF7FEFF 		bl	sleep_DACs
 489              	.LVL94:
 129:Music_Pieces.c ****     playTone(10,achtel);
 490              		.loc 1 129 0
 491 02d6 E121     		movs	r1, #225
 492 02d8 0A20     		movs	r0, #10
 493 02da FFF7FEFF 		bl	playTone
 494              	.LVL95:
 130:Music_Pieces.c ****     playTone(9,sechsentel);
 495              		.loc 1 130 0
 496 02de 7021     		movs	r1, #112
 497 02e0 0920     		movs	r0, #9
ARM GAS  C:\Users\sepp2\AppData\Local\Temp\cc3d5cPv.s 			page 12


 498 02e2 FFF7FEFF 		bl	playTone
 499              	.LVL96:
 131:Music_Pieces.c ****     playTone(10,sechsentel);
 500              		.loc 1 131 0
 501 02e6 7021     		movs	r1, #112
 502 02e8 0A20     		movs	r0, #10
 503 02ea FFF7FEFF 		bl	playTone
 504              	.LVL97:
 132:Music_Pieces.c ****     playTone(10,sechsentel);
 505              		.loc 1 132 0
 506 02ee 7021     		movs	r1, #112
 507 02f0 0A20     		movs	r0, #10
 508 02f2 FFF7FEFF 		bl	playTone
 509              	.LVL98:
 133:Music_Pieces.c ****     playTone(9,sechsentel);
 510              		.loc 1 133 0
 511 02f6 7021     		movs	r1, #112
 512 02f8 0920     		movs	r0, #9
 513 02fa FFF7FEFF 		bl	playTone
 514              	.LVL99:
 134:Music_Pieces.c ****     playTone(8,achtel);
 515              		.loc 1 134 0
 516 02fe E121     		movs	r1, #225
 517 0300 0820     		movs	r0, #8
 518 0302 FFF7FEFF 		bl	playTone
 519              	.LVL100:
 135:Music_Pieces.c ****     sleep_DACs(idle_sleep);
 520              		.loc 1 135 0
 521 0306 2068     		ldr	r0, [r4]
 522 0308 FFF7FEFF 		bl	sleep_DACs
 523              	.LVL101:
 524              	.LBB3:
 136:Music_Pieces.c ****     for (int i=0;i<6;i++){
 525              		.loc 1 136 0
 526 030c 0024     		movs	r4, #0
 527 030e 0DE0     		b	.L4
 528              	.LVL102:
 529              	.L6:
 137:Music_Pieces.c ****         playTone(7,achtel);
 530              		.loc 1 137 0
 531 0310 E121     		movs	r1, #225
 532 0312 0720     		movs	r0, #7
 533 0314 FFF7FEFF 		bl	playTone
 534              	.LVL103:
 138:Music_Pieces.c ****         if (i==3) sleep_DACs(idle_sleep);
 535              		.loc 1 138 0
 536 0318 032C     		cmp	r4, #3
 537 031a 03D1     		bne	.L5
 538              		.loc 1 138 0 is_stmt 0 discriminator 1
 539 031c 124B     		ldr	r3, .L10
 540 031e 1868     		ldr	r0, [r3]
 541 0320 FFF7FEFF 		bl	sleep_DACs
 542              	.LVL104:
 543              	.L5:
 139:Music_Pieces.c ****         sleep_DACs(3);
 544              		.loc 1 139 0 is_stmt 1 discriminator 2
 545 0324 0320     		movs	r0, #3
ARM GAS  C:\Users\sepp2\AppData\Local\Temp\cc3d5cPv.s 			page 13


 546 0326 FFF7FEFF 		bl	sleep_DACs
 547              	.LVL105:
 136:Music_Pieces.c ****         playTone(7,achtel);
 548              		.loc 1 136 0 discriminator 2
 549 032a 0134     		adds	r4, r4, #1
 550              	.LVL106:
 551              	.L4:
 136:Music_Pieces.c ****         playTone(7,achtel);
 552              		.loc 1 136 0 is_stmt 0 discriminator 1
 553 032c 052C     		cmp	r4, #5
 554 032e EFDD     		ble	.L6
 555              	.LBE3:
 140:Music_Pieces.c ****     }
 141:Music_Pieces.c ****     playTone(10,achtel);
 556              		.loc 1 141 0 is_stmt 1
 557 0330 E121     		movs	r1, #225
 558 0332 0A20     		movs	r0, #10
 559 0334 FFF7FEFF 		bl	playTone
 560              	.LVL107:
 142:Music_Pieces.c ****     playTone(9,achtel);
 561              		.loc 1 142 0
 562 0338 E121     		movs	r1, #225
 563 033a 0920     		movs	r0, #9
 564 033c FFF7FEFF 		bl	playTone
 565              	.LVL108:
 143:Music_Pieces.c ****     sleep_DACs(idle_sleep);
 566              		.loc 1 143 0
 567 0340 094B     		ldr	r3, .L10
 568 0342 1868     		ldr	r0, [r3]
 569 0344 FFF7FEFF 		bl	sleep_DACs
 570              	.LVL109:
 144:Music_Pieces.c ****     playTone(7,viertel);
 571              		.loc 1 144 0
 572 0348 4FF4E171 		mov	r1, #450
 573 034c 0720     		movs	r0, #7
 574 034e FFF7FEFF 		bl	playTone
 575              	.LVL110:
 145:Music_Pieces.c ****     //
 146:Music_Pieces.c ****     if (rep==0) sleep_DACs(viertel*3);
 576              		.loc 1 146 0
 577 0352 1DB9     		cbnz	r5, .L7
 578              		.loc 1 146 0 is_stmt 0 discriminator 1
 579 0354 40F24650 		movw	r0, #1350
 580 0358 FFF7FEFF 		bl	sleep_DACs
 581              	.LVL111:
 582              	.L7:
  76:Music_Pieces.c ****     if (rep == 1) sleep_DACs(viertel);
 583              		.loc 1 76 0 is_stmt 1 discriminator 2
 584 035c 0135     		adds	r5, r5, #1
 585              	.LVL112:
 586              	.L2:
  76:Music_Pieces.c ****     if (rep == 1) sleep_DACs(viertel);
 587              		.loc 1 76 0 is_stmt 0 discriminator 1
 588 035e 012D     		cmp	r5, #1
 589 0360 7FF7FCAE 		ble	.L8
 590              	.LBE2:
 147:Music_Pieces.c ****     //
ARM GAS  C:\Users\sepp2\AppData\Local\Temp\cc3d5cPv.s 			page 14


 148:Music_Pieces.c ****     }
 149:Music_Pieces.c ****     
 150:Music_Pieces.c ****     
 151:Music_Pieces.c ****     
 152:Music_Pieces.c ****    
 153:Music_Pieces.c **** }
 591              		.loc 1 153 0 is_stmt 1
 592 0364 38BD     		pop	{r3, r4, r5, pc}
 593              	.LVL113:
 594              	.L11:
 595 0366 00BF     		.align	2
 596              	.L10:
 597 0368 00000000 		.word	.LANCHOR0
 598              		.cfi_endproc
 599              	.LFE63:
 600              		.size	play_Narcotic, .-play_Narcotic
 601              		.global	idle_sleep
 602              		.data
 603              		.align	2
 604              		.set	.LANCHOR0,. + 0
 605              		.type	idle_sleep, %object
 606              		.size	idle_sleep, 4
 607              	idle_sleep:
 608 0000 0A000000 		.word	10
 609              		.text
 610              	.Letext0:
 611              		.file 2 "c:\\program files (x86)\\cypress\\psoc creator\\4.4\\psoc creator\\import\\gnu\\arm\\5.4.
 612              		.file 3 "c:\\program files (x86)\\cypress\\psoc creator\\4.4\\psoc creator\\import\\gnu\\arm\\5.4.
 613              		.file 4 "Generated_Source\\PSoC5/core_cm3.h"
 614              		.file 5 "Helpers.h"