ARM GAS  C:\Users\sepp2\AppData\Local\Temp\ccDC1zk3.s 			page 1


   1              		.syntax unified
   2              		.cpu cortex-m3
   3              		.fpu softvfp
   4              		.eabi_attribute 20, 1
   5              		.eabi_attribute 21, 1
   6              		.eabi_attribute 23, 3
   7              		.eabi_attribute 24, 1
   8              		.eabi_attribute 25, 1
   9              		.eabi_attribute 26, 1
  10              		.eabi_attribute 30, 1
  11              		.eabi_attribute 34, 1
  12              		.eabi_attribute 18, 4
  13              		.thumb
  14              		.syntax unified
  15              		.file	"Pices.c"
  16              		.text
  17              	.Ltext0:
  18              		.cfi_sections	.debug_frame
  19              		.section	.text.playTone,"ax",%progbits
  20              		.align	2
  21              		.global	playTone
  22              		.thumb
  23              		.thumb_func
  24              		.type	playTone, %function
  25              	playTone:
  26              	.LFB63:
  27              		.file 1 "./Helpers.h"
   1:./Helpers.h   **** /* ========================================
   2:./Helpers.h   ****  *
   3:./Helpers.h   ****  * Copyright YOUR COMPANY, THE YEAR
   4:./Helpers.h   ****  * All Rights Reserved
   5:./Helpers.h   ****  * UNPUBLISHED, LICENSED SOFTWARE.
   6:./Helpers.h   ****  *
   7:./Helpers.h   ****  * CONFIDENTIAL AND PROPRIETARY INFORMATION
   8:./Helpers.h   ****  * WHICH IS THE PROPERTY OF your company.
   9:./Helpers.h   ****  *
  10:./Helpers.h   ****  * ========================================
  11:./Helpers.h   **** */
  12:./Helpers.h   **** 
  13:./Helpers.h   **** /* [] END OF FILE */
  14:./Helpers.h   **** #include "project.h"
  15:./Helpers.h   **** 
  16:./Helpers.h   **** 
  17:./Helpers.h   **** //                        c'                   d'                e'                   f'           
  18:./Helpers.h   **** int tones[8][4] = {{1515,757,378,189},{1346,673,336,168},{1204,602,301,150},{1130,565,282,141},{100
  19:./Helpers.h   **** 
  20:./Helpers.h   **** //int idle_sleep = 10;
  21:./Helpers.h   **** 
  22:./Helpers.h   **** 
  23:./Helpers.h   **** void playTone(int tone,int time){
  28              		.loc 1 23 0
  29              		.cfi_startproc
  30              		@ args = 0, pretend = 0, frame = 0
  31              		@ frame_needed = 0, uses_anonymous_args = 0
  32              	.LVL0:
  33 0000 38B5     		push	{r3, r4, r5, lr}
  34              		.cfi_def_cfa_offset 16
ARM GAS  C:\Users\sepp2\AppData\Local\Temp\ccDC1zk3.s 			page 2


  35              		.cfi_offset 3, -16
  36              		.cfi_offset 4, -12
  37              		.cfi_offset 5, -8
  38              		.cfi_offset 14, -4
  39 0002 0D46     		mov	r5, r1
  24:./Helpers.h   ****     WaveDAC8_1_Wave1Setup(WaveDAC8_1_SINE_WAVE,tones[tone][0]);
  40              		.loc 1 24 0
  41 0004 0B4B     		ldr	r3, .L3
  42 0006 0001     		lsls	r0, r0, #4
  43              	.LVL1:
  44 0008 1C18     		adds	r4, r3, r0
  45 000a 195A     		ldrh	r1, [r3, r0]
  46              	.LVL2:
  47 000c 0020     		movs	r0, #0
  48 000e FFF7FEFF 		bl	WaveDAC8_1_Wave1Setup
  49              	.LVL3:
  25:./Helpers.h   ****     WaveDAC8_2_Wave1Setup(WaveDAC8_2_SINE_WAVE,tones[tone][1]);
  50              		.loc 1 25 0
  51 0012 A188     		ldrh	r1, [r4, #4]
  52 0014 0020     		movs	r0, #0
  53 0016 FFF7FEFF 		bl	WaveDAC8_2_Wave1Setup
  54              	.LVL4:
  26:./Helpers.h   ****     WaveDAC8_3_Wave1Setup(WaveDAC8_3_SINE_WAVE,tones[tone][2]);
  55              		.loc 1 26 0
  56 001a 2189     		ldrh	r1, [r4, #8]
  57 001c 0020     		movs	r0, #0
  58 001e FFF7FEFF 		bl	WaveDAC8_3_Wave1Setup
  59              	.LVL5:
  27:./Helpers.h   ****     WaveDAC8_4_Wave1Setup(WaveDAC8_4_SINE_WAVE,tones[tone][3]);
  60              		.loc 1 27 0
  61 0022 A189     		ldrh	r1, [r4, #12]
  62 0024 0020     		movs	r0, #0
  63 0026 FFF7FEFF 		bl	WaveDAC8_4_Wave1Setup
  64              	.LVL6:
  28:./Helpers.h   ****     CyDelay(time);
  65              		.loc 1 28 0
  66 002a 2846     		mov	r0, r5
  67 002c FFF7FEFF 		bl	CyDelay
  68              	.LVL7:
  69 0030 38BD     		pop	{r3, r4, r5, pc}
  70              	.LVL8:
  71              	.L4:
  72 0032 00BF     		.align	2
  73              	.L3:
  74 0034 00000000 		.word	.LANCHOR0
  75              		.cfi_endproc
  76              	.LFE63:
  77              		.size	playTone, .-playTone
  78              		.section	.text.sleep_DACs,"ax",%progbits
  79              		.align	2
  80              		.global	sleep_DACs
  81              		.thumb
  82              		.thumb_func
  83              		.type	sleep_DACs, %function
  84              	sleep_DACs:
  85              	.LFB64:
  29:./Helpers.h   **** }
ARM GAS  C:\Users\sepp2\AppData\Local\Temp\ccDC1zk3.s 			page 3


  30:./Helpers.h   **** 
  31:./Helpers.h   **** void sleep_DACs(int time){
  86              		.loc 1 31 0
  87              		.cfi_startproc
  88              		@ args = 0, pretend = 0, frame = 0
  89              		@ frame_needed = 0, uses_anonymous_args = 0
  90              	.LVL9:
  91 0000 10B5     		push	{r4, lr}
  92              		.cfi_def_cfa_offset 8
  93              		.cfi_offset 4, -8
  94              		.cfi_offset 14, -4
  95 0002 0446     		mov	r4, r0
  32:./Helpers.h   ****     WaveDAC8_1_Stop();
  96              		.loc 1 32 0
  97 0004 FFF7FEFF 		bl	WaveDAC8_1_Stop
  98              	.LVL10:
  33:./Helpers.h   ****     WaveDAC8_2_Stop();
  99              		.loc 1 33 0
 100 0008 FFF7FEFF 		bl	WaveDAC8_2_Stop
 101              	.LVL11:
  34:./Helpers.h   ****     WaveDAC8_3_Stop();
 102              		.loc 1 34 0
 103 000c FFF7FEFF 		bl	WaveDAC8_3_Stop
 104              	.LVL12:
  35:./Helpers.h   ****     WaveDAC8_4_Stop();
 105              		.loc 1 35 0
 106 0010 FFF7FEFF 		bl	WaveDAC8_4_Stop
 107              	.LVL13:
  36:./Helpers.h   ****     CyDelay(time);
 108              		.loc 1 36 0
 109 0014 2046     		mov	r0, r4
 110 0016 FFF7FEFF 		bl	CyDelay
 111              	.LVL14:
  37:./Helpers.h   ****     WaveDAC8_1_Start();
 112              		.loc 1 37 0
 113 001a FFF7FEFF 		bl	WaveDAC8_1_Start
 114              	.LVL15:
  38:./Helpers.h   ****     WaveDAC8_2_Start();
 115              		.loc 1 38 0
 116 001e FFF7FEFF 		bl	WaveDAC8_2_Start
 117              	.LVL16:
  39:./Helpers.h   ****     WaveDAC8_3_Start();
 118              		.loc 1 39 0
 119 0022 FFF7FEFF 		bl	WaveDAC8_3_Start
 120              	.LVL17:
  40:./Helpers.h   ****     WaveDAC8_4_Start();
 121              		.loc 1 40 0
 122 0026 FFF7FEFF 		bl	WaveDAC8_4_Start
 123              	.LVL18:
 124 002a 10BD     		pop	{r4, pc}
 125              		.cfi_endproc
 126              	.LFE64:
 127              		.size	sleep_DACs, .-sleep_DACs
 128              		.section	.text.play_Narcotic,"ax",%progbits
 129              		.align	2
 130              		.global	play_Narcotic
 131              		.thumb
ARM GAS  C:\Users\sepp2\AppData\Local\Temp\ccDC1zk3.s 			page 4


 132              		.thumb_func
 133              		.type	play_Narcotic, %function
 134              	play_Narcotic:
 135              	.LFB65:
 136              		.file 2 "Pices.c"
   1:Pices.c       **** /* ========================================
   2:Pices.c       ****  *
   3:Pices.c       ****  * Copyright YOUR COMPANY, THE YEAR
   4:Pices.c       ****  * All Rights Reserved
   5:Pices.c       ****  * UNPUBLISHED, LICENSED SOFTWARE.
   6:Pices.c       ****  *
   7:Pices.c       ****  * CONFIDENTIAL AND PROPRIETARY INFORMATION
   8:Pices.c       ****  * WHICH IS THE PROPERTY OF your company.
   9:Pices.c       ****  *
  10:Pices.c       ****  * ========================================
  11:Pices.c       **** */
  12:Pices.c       **** 
  13:Pices.c       **** /* [] END OF FILE */
  14:Pices.c       **** #include <math.h>
  15:Pices.c       **** #include "project.h"
  16:Pices.c       **** #include <Helpers.h>
  17:Pices.c       **** 
  18:Pices.c       **** int idle_sleep = 10;
  19:Pices.c       **** void play_Narcotic(){
 137              		.loc 2 19 0
 138              		.cfi_startproc
 139              		@ args = 0, pretend = 0, frame = 0
 140              		@ frame_needed = 0, uses_anonymous_args = 0
 141 0000 10B5     		push	{r4, lr}
 142              		.cfi_def_cfa_offset 8
 143              		.cfi_offset 4, -8
 144              		.cfi_offset 14, -4
 145              	.LVL19:
  20:Pices.c       ****     int bpm = 102;
  21:Pices.c       ****     //int viertel = round(60/bpm*1000);
  22:Pices.c       ****     int viertel = 450;
  23:Pices.c       ****     int achtel = round(viertel/2);
  24:Pices.c       ****     int sechsentel = round(viertel/4);
  25:Pices.c       ****     playTone(1,achtel);
 146              		.loc 2 25 0
 147 0002 E121     		movs	r1, #225
 148 0004 0120     		movs	r0, #1
 149 0006 FFF7FEFF 		bl	playTone
 150              	.LVL20:
  26:Pices.c       ****     CyDelay(idle_sleep);
 151              		.loc 2 26 0
 152 000a 554C     		ldr	r4, .L9
 153 000c D4F88000 		ldr	r0, [r4, #128]
 154 0010 FFF7FEFF 		bl	CyDelay
 155              	.LVL21:
  27:Pices.c       ****     playTone(2,achtel);
 156              		.loc 2 27 0
 157 0014 E121     		movs	r1, #225
 158 0016 0220     		movs	r0, #2
 159 0018 FFF7FEFF 		bl	playTone
 160              	.LVL22:
  28:Pices.c       ****     playTone(1,achtel);
ARM GAS  C:\Users\sepp2\AppData\Local\Temp\ccDC1zk3.s 			page 5


 161              		.loc 2 28 0
 162 001c E121     		movs	r1, #225
 163 001e 0120     		movs	r0, #1
 164 0020 FFF7FEFF 		bl	playTone
 165              	.LVL23:
  29:Pices.c       ****     CyDelay(idle_sleep);
 166              		.loc 2 29 0
 167 0024 D4F88000 		ldr	r0, [r4, #128]
 168 0028 FFF7FEFF 		bl	CyDelay
 169              	.LVL24:
  30:Pices.c       ****     playTone(2,achtel);
 170              		.loc 2 30 0
 171 002c E121     		movs	r1, #225
 172 002e 0220     		movs	r0, #2
 173 0030 FFF7FEFF 		bl	playTone
 174              	.LVL25:
  31:Pices.c       ****     playTone(1,achtel);
 175              		.loc 2 31 0
 176 0034 E121     		movs	r1, #225
 177 0036 0120     		movs	r0, #1
 178 0038 FFF7FEFF 		bl	playTone
 179              	.LVL26:
  32:Pices.c       ****     CyDelay(idle_sleep);
 180              		.loc 2 32 0
 181 003c D4F88000 		ldr	r0, [r4, #128]
 182 0040 FFF7FEFF 		bl	CyDelay
 183              	.LVL27:
  33:Pices.c       ****     playTone(2,achtel);
 184              		.loc 2 33 0
 185 0044 E121     		movs	r1, #225
 186 0046 0220     		movs	r0, #2
 187 0048 FFF7FEFF 		bl	playTone
 188              	.LVL28:
  34:Pices.c       ****     playTone(1,sechsentel);
 189              		.loc 2 34 0
 190 004c 7021     		movs	r1, #112
 191 004e 0120     		movs	r0, #1
 192 0050 FFF7FEFF 		bl	playTone
 193              	.LVL29:
  35:Pices.c       ****     playTone(3,sechsentel);
 194              		.loc 2 35 0
 195 0054 7021     		movs	r1, #112
 196 0056 0320     		movs	r0, #3
 197 0058 FFF7FEFF 		bl	playTone
 198              	.LVL30:
  36:Pices.c       ****     playTone(3,achtel);
 199              		.loc 2 36 0
 200 005c E121     		movs	r1, #225
 201 005e 0320     		movs	r0, #3
 202 0060 FFF7FEFF 		bl	playTone
 203              	.LVL31:
  37:Pices.c       ****     playTone(2,achtel);
 204              		.loc 2 37 0
 205 0064 E121     		movs	r1, #225
 206 0066 0220     		movs	r0, #2
 207 0068 FFF7FEFF 		bl	playTone
 208              	.LVL32:
ARM GAS  C:\Users\sepp2\AppData\Local\Temp\ccDC1zk3.s 			page 6


  38:Pices.c       ****     CyDelay(idle_sleep);
 209              		.loc 2 38 0
 210 006c D4F88000 		ldr	r0, [r4, #128]
 211 0070 FFF7FEFF 		bl	CyDelay
 212              	.LVL33:
  39:Pices.c       ****     playTone(3,achtel);
 213              		.loc 2 39 0
 214 0074 E121     		movs	r1, #225
 215 0076 0320     		movs	r0, #3
 216 0078 FFF7FEFF 		bl	playTone
 217              	.LVL34:
  40:Pices.c       ****     playTone(2,achtel);
 218              		.loc 2 40 0
 219 007c E121     		movs	r1, #225
 220 007e 0220     		movs	r0, #2
 221 0080 FFF7FEFF 		bl	playTone
 222              	.LVL35:
  41:Pices.c       ****     CyDelay(idle_sleep);
 223              		.loc 2 41 0
 224 0084 D4F88000 		ldr	r0, [r4, #128]
 225 0088 FFF7FEFF 		bl	CyDelay
 226              	.LVL36:
  42:Pices.c       ****     playTone(3,achtel);
 227              		.loc 2 42 0
 228 008c E121     		movs	r1, #225
 229 008e 0320     		movs	r0, #3
 230 0090 FFF7FEFF 		bl	playTone
 231              	.LVL37:
  43:Pices.c       ****     playTone(2,achtel);
 232              		.loc 2 43 0
 233 0094 E121     		movs	r1, #225
 234 0096 0220     		movs	r0, #2
 235 0098 FFF7FEFF 		bl	playTone
 236              	.LVL38:
  44:Pices.c       ****     CyDelay(idle_sleep);
 237              		.loc 2 44 0
 238 009c D4F88000 		ldr	r0, [r4, #128]
 239 00a0 FFF7FEFF 		bl	CyDelay
 240              	.LVL39:
  45:Pices.c       ****     playTone(3,achtel);
 241              		.loc 2 45 0
 242 00a4 E121     		movs	r1, #225
 243 00a6 0320     		movs	r0, #3
 244 00a8 FFF7FEFF 		bl	playTone
 245              	.LVL40:
  46:Pices.c       ****     playTone(4,sechsentel);
 246              		.loc 2 46 0
 247 00ac 7021     		movs	r1, #112
 248 00ae 0420     		movs	r0, #4
 249 00b0 FFF7FEFF 		bl	playTone
 250              	.LVL41:
  47:Pices.c       ****     playTone(5,sechsentel);
 251              		.loc 2 47 0
 252 00b4 7021     		movs	r1, #112
 253 00b6 0520     		movs	r0, #5
 254 00b8 FFF7FEFF 		bl	playTone
 255              	.LVL42:
ARM GAS  C:\Users\sepp2\AppData\Local\Temp\ccDC1zk3.s 			page 7


  48:Pices.c       ****     playTone(5,achtel);
 256              		.loc 2 48 0
 257 00bc E121     		movs	r1, #225
 258 00be 0520     		movs	r0, #5
 259 00c0 FFF7FEFF 		bl	playTone
 260              	.LVL43:
  49:Pices.c       ****     playTone(4,achtel);
 261              		.loc 2 49 0
 262 00c4 E121     		movs	r1, #225
 263 00c6 0420     		movs	r0, #4
 264 00c8 FFF7FEFF 		bl	playTone
 265              	.LVL44:
  50:Pices.c       ****     CyDelay(idle_sleep);
 266              		.loc 2 50 0
 267 00cc D4F88000 		ldr	r0, [r4, #128]
 268 00d0 FFF7FEFF 		bl	CyDelay
 269              	.LVL45:
  51:Pices.c       ****     playTone(5,achtel);
 270              		.loc 2 51 0
 271 00d4 E121     		movs	r1, #225
 272 00d6 0520     		movs	r0, #5
 273 00d8 FFF7FEFF 		bl	playTone
 274              	.LVL46:
  52:Pices.c       ****     playTone(4,achtel);
 275              		.loc 2 52 0
 276 00dc E121     		movs	r1, #225
 277 00de 0420     		movs	r0, #4
 278 00e0 FFF7FEFF 		bl	playTone
 279              	.LVL47:
  53:Pices.c       ****     CyDelay(idle_sleep);
 280              		.loc 2 53 0
 281 00e4 D4F88000 		ldr	r0, [r4, #128]
 282 00e8 FFF7FEFF 		bl	CyDelay
 283              	.LVL48:
  54:Pices.c       ****     playTone(5,achtel);
 284              		.loc 2 54 0
 285 00ec E121     		movs	r1, #225
 286 00ee 0520     		movs	r0, #5
 287 00f0 FFF7FEFF 		bl	playTone
 288              	.LVL49:
  55:Pices.c       ****     playTone(4,achtel);
 289              		.loc 2 55 0
 290 00f4 E121     		movs	r1, #225
 291 00f6 0420     		movs	r0, #4
 292 00f8 FFF7FEFF 		bl	playTone
 293              	.LVL50:
  56:Pices.c       ****     CyDelay(idle_sleep);
 294              		.loc 2 56 0
 295 00fc D4F88000 		ldr	r0, [r4, #128]
 296 0100 FFF7FEFF 		bl	CyDelay
 297              	.LVL51:
  57:Pices.c       ****     playTone(5,achtel);
 298              		.loc 2 57 0
 299 0104 E121     		movs	r1, #225
 300 0106 0520     		movs	r0, #5
 301 0108 FFF7FEFF 		bl	playTone
 302              	.LVL52:
ARM GAS  C:\Users\sepp2\AppData\Local\Temp\ccDC1zk3.s 			page 8


  58:Pices.c       ****     playTone(4,sechsentel);
 303              		.loc 2 58 0
 304 010c 7021     		movs	r1, #112
 305 010e 0420     		movs	r0, #4
 306 0110 FFF7FEFF 		bl	playTone
 307              	.LVL53:
  59:Pices.c       ****     playTone(2,sechsentel);
 308              		.loc 2 59 0
 309 0114 7021     		movs	r1, #112
 310 0116 0220     		movs	r0, #2
 311 0118 FFF7FEFF 		bl	playTone
 312              	.LVL54:
  60:Pices.c       ****     playTone(2,achtel);
 313              		.loc 2 60 0
 314 011c E121     		movs	r1, #225
 315 011e 0220     		movs	r0, #2
 316 0120 FFF7FEFF 		bl	playTone
 317              	.LVL55:
  61:Pices.c       ****     playTone(1,achtel);
 318              		.loc 2 61 0
 319 0124 E121     		movs	r1, #225
 320 0126 0120     		movs	r0, #1
 321 0128 FFF7FEFF 		bl	playTone
 322              	.LVL56:
  62:Pices.c       ****     CyDelay(idle_sleep);
 323              		.loc 2 62 0
 324 012c D4F88000 		ldr	r0, [r4, #128]
 325 0130 FFF7FEFF 		bl	CyDelay
 326              	.LVL57:
  63:Pices.c       ****     playTone(2,achtel);
 327              		.loc 2 63 0
 328 0134 E121     		movs	r1, #225
 329 0136 0220     		movs	r0, #2
 330 0138 FFF7FEFF 		bl	playTone
 331              	.LVL58:
  64:Pices.c       ****     playTone(1,achtel);
 332              		.loc 2 64 0
 333 013c E121     		movs	r1, #225
 334 013e 0120     		movs	r0, #1
 335 0140 FFF7FEFF 		bl	playTone
 336              	.LVL59:
  65:Pices.c       ****     CyDelay(idle_sleep);
 337              		.loc 2 65 0
 338 0144 D4F88000 		ldr	r0, [r4, #128]
 339 0148 FFF7FEFF 		bl	CyDelay
 340              	.LVL60:
  66:Pices.c       ****     playTone(2,achtel+sechsentel);
 341              		.loc 2 66 0
 342 014c 40F25111 		movw	r1, #337
 343 0150 0220     		movs	r0, #2
 344 0152 FFF7FEFF 		bl	playTone
 345              	.LVL61:
  67:Pices.c       ****     playTone(3,achtel);
 346              		.loc 2 67 0
 347 0156 E121     		movs	r1, #225
 348 0158 0320     		movs	r0, #3
 349 015a FFF7FEFF 		bl	playTone
ARM GAS  C:\Users\sepp2\AppData\Local\Temp\ccDC1zk3.s 			page 9


 350              	.LVL62:
 351 015e 10BD     		pop	{r4, pc}
 352              	.L10:
 353              		.align	2
 354              	.L9:
 355 0160 00000000 		.word	.LANCHOR0
 356              		.cfi_endproc
 357              	.LFE65:
 358              		.size	play_Narcotic, .-play_Narcotic
 359              		.global	idle_sleep
 360              		.global	tones
 361              		.data
 362              		.align	2
 363              		.set	.LANCHOR0,. + 0
 364              		.type	tones, %object
 365              		.size	tones, 128
 366              	tones:
 367 0000 EB050000 		.word	1515
 368 0004 F5020000 		.word	757
 369 0008 7A010000 		.word	378
 370 000c BD000000 		.word	189
 371 0010 42050000 		.word	1346
 372 0014 A1020000 		.word	673
 373 0018 50010000 		.word	336
 374 001c A8000000 		.word	168
 375 0020 B4040000 		.word	1204
 376 0024 5A020000 		.word	602
 377 0028 2D010000 		.word	301
 378 002c 96000000 		.word	150
 379 0030 6A040000 		.word	1130
 380 0034 35020000 		.word	565
 381 0038 1A010000 		.word	282
 382 003c 8D000000 		.word	141
 383 0040 ED030000 		.word	1005
 384 0044 F6010000 		.word	502
 385 0048 FB000000 		.word	251
 386 004c 7D000000 		.word	125
 387 0050 89030000 		.word	905
 388 0054 C4010000 		.word	452
 389 0058 E2000000 		.word	226
 390 005c 71000000 		.word	113
 391 0060 28030000 		.word	808
 392 0064 94010000 		.word	404
 393 0068 CA000000 		.word	202
 394 006c 65000000 		.word	101
 395 0070 F2020000 		.word	754
 396 0074 79010000 		.word	377
 397 0078 BC000000 		.word	188
 398 007c 5E000000 		.word	94
 399              		.type	idle_sleep, %object
 400              		.size	idle_sleep, 4
 401              	idle_sleep:
 402 0080 0A000000 		.word	10
 403              		.text
 404              	.Letext0:
 405              		.file 3 "c:\\program files (x86)\\cypress\\psoc creator\\4.4\\psoc creator\\import\\gnu\\arm\\5.4.
 406              		.file 4 "c:\\program files (x86)\\cypress\\psoc creator\\4.4\\psoc creator\\import\\gnu\\arm\\5.4.
ARM GAS  C:\Users\sepp2\AppData\Local\Temp\ccDC1zk3.s 			page 10


 407              		.file 5 "Generated_Source\\PSoC5/core_cm3.h"
 408              		.file 6 "Generated_Source\\PSoC5/WaveDAC8_1.h"
 409              		.file 7 "Generated_Source\\PSoC5/WaveDAC8_2.h"
 410              		.file 8 "Generated_Source\\PSoC5/WaveDAC8_3.h"
 411              		.file 9 "Generated_Source\\PSoC5/WaveDAC8_4.h"
 412              		.file 10 "Generated_Source\\PSoC5/CyLib.h"