ARM GAS  C:\Users\sepp2\AppData\Local\Temp\ccQCQWMk.s 			page 1


   1              		.syntax unified
   2              		.cpu cortex-m3
   3              		.fpu softvfp
   4              		.eabi_attribute 20, 1
   5              		.eabi_attribute 21, 1
   6              		.eabi_attribute 23, 3
   7              		.eabi_attribute 24, 1
   8              		.eabi_attribute 25, 1
   9              		.eabi_attribute 26, 1
  10              		.eabi_attribute 30, 1
  11              		.eabi_attribute 34, 1
  12              		.eabi_attribute 18, 4
  13              		.thumb
  14              		.syntax unified
  15              		.file	"WaveDAC8_3.c"
  16              		.text
  17              	.Ltext0:
  18              		.cfi_sections	.debug_frame
  19              		.section	.text.WaveDAC8_3_Enable,"ax",%progbits
  20              		.align	2
  21              		.global	WaveDAC8_3_Enable
  22              		.thumb
  23              		.thumb_func
  24              		.type	WaveDAC8_3_Enable, %function
  25              	WaveDAC8_3_Enable:
  26              	.LFB1:
  27              		.file 1 "Generated_Source\\PSoC5\\WaveDAC8_3.c"
   1:Generated_Source\PSoC5/WaveDAC8_3.c **** /*******************************************************************************
   2:Generated_Source\PSoC5/WaveDAC8_3.c **** * File Name: WaveDAC8_3.c
   3:Generated_Source\PSoC5/WaveDAC8_3.c **** * Version 2.10
   4:Generated_Source\PSoC5/WaveDAC8_3.c **** *
   5:Generated_Source\PSoC5/WaveDAC8_3.c **** * Description:
   6:Generated_Source\PSoC5/WaveDAC8_3.c **** *  This file provides the source code for the 8-bit Waveform DAC 
   7:Generated_Source\PSoC5/WaveDAC8_3.c **** *  (WaveDAC8) Component.
   8:Generated_Source\PSoC5/WaveDAC8_3.c **** *
   9:Generated_Source\PSoC5/WaveDAC8_3.c **** ********************************************************************************
  10:Generated_Source\PSoC5/WaveDAC8_3.c **** * Copyright 2013, Cypress Semiconductor Corporation.  All rights reserved.
  11:Generated_Source\PSoC5/WaveDAC8_3.c **** * You may use this file only in accordance with the license, terms, conditions,
  12:Generated_Source\PSoC5/WaveDAC8_3.c **** * disclaimers, and limitations in the end user license agreement accompanying
  13:Generated_Source\PSoC5/WaveDAC8_3.c **** * the software package with which this file was provided.
  14:Generated_Source\PSoC5/WaveDAC8_3.c **** *******************************************************************************/
  15:Generated_Source\PSoC5/WaveDAC8_3.c **** 
  16:Generated_Source\PSoC5/WaveDAC8_3.c **** #include "WaveDAC8_3.h"
  17:Generated_Source\PSoC5/WaveDAC8_3.c **** 
  18:Generated_Source\PSoC5/WaveDAC8_3.c **** uint8  WaveDAC8_3_initVar = 0u;
  19:Generated_Source\PSoC5/WaveDAC8_3.c **** 
  20:Generated_Source\PSoC5/WaveDAC8_3.c **** const uint8 CYCODE WaveDAC8_3_wave1[WaveDAC8_3_WAVE1_LENGTH] = { 125u,129u,133u,138u,142u,146u,150u
  21:Generated_Source\PSoC5/WaveDAC8_3.c **** const uint8 CYCODE WaveDAC8_3_wave2[WaveDAC8_3_WAVE2_LENGTH] = { 128u,128u,128u,128u,128u,128u,128u
  22:Generated_Source\PSoC5/WaveDAC8_3.c **** 
  23:Generated_Source\PSoC5/WaveDAC8_3.c **** static uint8  WaveDAC8_3_Wave1Chan;
  24:Generated_Source\PSoC5/WaveDAC8_3.c **** static uint8  WaveDAC8_3_Wave2Chan;
  25:Generated_Source\PSoC5/WaveDAC8_3.c **** static uint8  WaveDAC8_3_Wave1TD;
  26:Generated_Source\PSoC5/WaveDAC8_3.c **** static uint8  WaveDAC8_3_Wave2TD;
  27:Generated_Source\PSoC5/WaveDAC8_3.c **** 
  28:Generated_Source\PSoC5/WaveDAC8_3.c **** 
  29:Generated_Source\PSoC5/WaveDAC8_3.c **** /*******************************************************************************
  30:Generated_Source\PSoC5/WaveDAC8_3.c **** * Function Name: WaveDAC8_3_Init
ARM GAS  C:\Users\sepp2\AppData\Local\Temp\ccQCQWMk.s 			page 2


  31:Generated_Source\PSoC5/WaveDAC8_3.c **** ********************************************************************************
  32:Generated_Source\PSoC5/WaveDAC8_3.c **** *
  33:Generated_Source\PSoC5/WaveDAC8_3.c **** * Summary:
  34:Generated_Source\PSoC5/WaveDAC8_3.c **** *  Initializes component with parameters set in the customizer.
  35:Generated_Source\PSoC5/WaveDAC8_3.c **** *
  36:Generated_Source\PSoC5/WaveDAC8_3.c **** * Parameters:  
  37:Generated_Source\PSoC5/WaveDAC8_3.c **** *  None
  38:Generated_Source\PSoC5/WaveDAC8_3.c **** *
  39:Generated_Source\PSoC5/WaveDAC8_3.c **** * Return: 
  40:Generated_Source\PSoC5/WaveDAC8_3.c **** *  None
  41:Generated_Source\PSoC5/WaveDAC8_3.c **** *
  42:Generated_Source\PSoC5/WaveDAC8_3.c **** *******************************************************************************/
  43:Generated_Source\PSoC5/WaveDAC8_3.c **** void WaveDAC8_3_Init(void) 
  44:Generated_Source\PSoC5/WaveDAC8_3.c **** {
  45:Generated_Source\PSoC5/WaveDAC8_3.c **** 	WaveDAC8_3_VDAC8_Init();
  46:Generated_Source\PSoC5/WaveDAC8_3.c **** 	WaveDAC8_3_VDAC8_SetSpeed(WaveDAC8_3_HIGHSPEED);
  47:Generated_Source\PSoC5/WaveDAC8_3.c **** 	WaveDAC8_3_VDAC8_SetRange(WaveDAC8_3_DAC_RANGE);
  48:Generated_Source\PSoC5/WaveDAC8_3.c **** 
  49:Generated_Source\PSoC5/WaveDAC8_3.c **** 	#if(WaveDAC8_3_DAC_MODE == WaveDAC8_3_CURRENT_MODE)
  50:Generated_Source\PSoC5/WaveDAC8_3.c **** 		WaveDAC8_3_IDAC8_SetPolarity(WaveDAC8_3_DAC_POL);
  51:Generated_Source\PSoC5/WaveDAC8_3.c **** 	#endif /* WaveDAC8_3_DAC_MODE == WaveDAC8_3_CURRENT_MODE */
  52:Generated_Source\PSoC5/WaveDAC8_3.c **** 
  53:Generated_Source\PSoC5/WaveDAC8_3.c **** 	#if(WaveDAC8_3_OUT_MODE == WaveDAC8_3_BUFFER_MODE)
  54:Generated_Source\PSoC5/WaveDAC8_3.c **** 	   WaveDAC8_3_BuffAmp_Init();
  55:Generated_Source\PSoC5/WaveDAC8_3.c **** 	#endif /* WaveDAC8_3_OUT_MODE == WaveDAC8_3_BUFFER_MODE */
  56:Generated_Source\PSoC5/WaveDAC8_3.c **** 
  57:Generated_Source\PSoC5/WaveDAC8_3.c **** 	/* Get the TD Number for the DMA channel 1 and 2   */
  58:Generated_Source\PSoC5/WaveDAC8_3.c **** 	WaveDAC8_3_Wave1TD = CyDmaTdAllocate();
  59:Generated_Source\PSoC5/WaveDAC8_3.c **** 	WaveDAC8_3_Wave2TD = CyDmaTdAllocate();
  60:Generated_Source\PSoC5/WaveDAC8_3.c **** 	
  61:Generated_Source\PSoC5/WaveDAC8_3.c **** 	/* Initialize waveform pointers  */
  62:Generated_Source\PSoC5/WaveDAC8_3.c **** 	WaveDAC8_3_Wave1Setup(WaveDAC8_3_wave1, WaveDAC8_3_WAVE1_LENGTH) ;
  63:Generated_Source\PSoC5/WaveDAC8_3.c **** 	WaveDAC8_3_Wave2Setup(WaveDAC8_3_wave2, WaveDAC8_3_WAVE2_LENGTH) ;
  64:Generated_Source\PSoC5/WaveDAC8_3.c **** 	
  65:Generated_Source\PSoC5/WaveDAC8_3.c **** 	/* Initialize the internal clock if one present  */
  66:Generated_Source\PSoC5/WaveDAC8_3.c **** 	#if defined(WaveDAC8_3_DacClk_PHASE)
  67:Generated_Source\PSoC5/WaveDAC8_3.c **** 	   WaveDAC8_3_DacClk_SetPhase(WaveDAC8_3_CLK_PHASE_0nS);
  68:Generated_Source\PSoC5/WaveDAC8_3.c **** 	#endif /* defined(WaveDAC8_3_DacClk_PHASE) */
  69:Generated_Source\PSoC5/WaveDAC8_3.c **** }
  70:Generated_Source\PSoC5/WaveDAC8_3.c **** 
  71:Generated_Source\PSoC5/WaveDAC8_3.c **** 
  72:Generated_Source\PSoC5/WaveDAC8_3.c **** /*******************************************************************************
  73:Generated_Source\PSoC5/WaveDAC8_3.c **** * Function Name: WaveDAC8_3_Enable
  74:Generated_Source\PSoC5/WaveDAC8_3.c **** ********************************************************************************
  75:Generated_Source\PSoC5/WaveDAC8_3.c **** *  
  76:Generated_Source\PSoC5/WaveDAC8_3.c **** * Summary: 
  77:Generated_Source\PSoC5/WaveDAC8_3.c **** *  Enables the DAC block and DMA operation.
  78:Generated_Source\PSoC5/WaveDAC8_3.c **** *
  79:Generated_Source\PSoC5/WaveDAC8_3.c **** * Parameters:  
  80:Generated_Source\PSoC5/WaveDAC8_3.c **** *  None
  81:Generated_Source\PSoC5/WaveDAC8_3.c **** *
  82:Generated_Source\PSoC5/WaveDAC8_3.c **** * Return: 
  83:Generated_Source\PSoC5/WaveDAC8_3.c **** *  None
  84:Generated_Source\PSoC5/WaveDAC8_3.c **** *
  85:Generated_Source\PSoC5/WaveDAC8_3.c **** *******************************************************************************/
  86:Generated_Source\PSoC5/WaveDAC8_3.c **** void WaveDAC8_3_Enable(void) 
  87:Generated_Source\PSoC5/WaveDAC8_3.c **** {
ARM GAS  C:\Users\sepp2\AppData\Local\Temp\ccQCQWMk.s 			page 3


  28              		.loc 1 87 0
  29              		.cfi_startproc
  30              		@ args = 0, pretend = 0, frame = 0
  31              		@ frame_needed = 0, uses_anonymous_args = 0
  32 0000 10B5     		push	{r4, lr}
  33              		.cfi_def_cfa_offset 8
  34              		.cfi_offset 4, -8
  35              		.cfi_offset 14, -4
  88:Generated_Source\PSoC5/WaveDAC8_3.c **** 	WaveDAC8_3_VDAC8_Enable();
  36              		.loc 1 88 0
  37 0002 FFF7FEFF 		bl	WaveDAC8_3_VDAC8_Enable
  38              	.LVL0:
  89:Generated_Source\PSoC5/WaveDAC8_3.c **** 
  90:Generated_Source\PSoC5/WaveDAC8_3.c **** 	#if(WaveDAC8_3_OUT_MODE == WaveDAC8_3_BUFFER_MODE)
  91:Generated_Source\PSoC5/WaveDAC8_3.c **** 	   WaveDAC8_3_BuffAmp_Enable();
  92:Generated_Source\PSoC5/WaveDAC8_3.c **** 	#endif /* WaveDAC8_3_OUT_MODE == WaveDAC8_3_BUFFER_MODE */
  93:Generated_Source\PSoC5/WaveDAC8_3.c **** 
  94:Generated_Source\PSoC5/WaveDAC8_3.c **** 	/* 
  95:Generated_Source\PSoC5/WaveDAC8_3.c **** 	* Enable the channel. It is configured to remember the TD value so that
  96:Generated_Source\PSoC5/WaveDAC8_3.c **** 	* it can be restored from the place where it has been stopped.
  97:Generated_Source\PSoC5/WaveDAC8_3.c **** 	*/
  98:Generated_Source\PSoC5/WaveDAC8_3.c **** 	(void)CyDmaChEnable(WaveDAC8_3_Wave1Chan, 1u);
  39              		.loc 1 98 0
  40 0006 074C     		ldr	r4, .L3
  41 0008 0121     		movs	r1, #1
  42 000a 2078     		ldrb	r0, [r4]	@ zero_extendqisi2
  43 000c FFF7FEFF 		bl	CyDmaChEnable
  44              	.LVL1:
  99:Generated_Source\PSoC5/WaveDAC8_3.c **** 	(void)CyDmaChEnable(WaveDAC8_3_Wave2Chan, 1u);
  45              		.loc 1 99 0
  46 0010 0121     		movs	r1, #1
  47 0012 6078     		ldrb	r0, [r4, #1]	@ zero_extendqisi2
  48 0014 FFF7FEFF 		bl	CyDmaChEnable
  49              	.LVL2:
 100:Generated_Source\PSoC5/WaveDAC8_3.c **** 	
 101:Generated_Source\PSoC5/WaveDAC8_3.c **** 	/* set the initial value */
 102:Generated_Source\PSoC5/WaveDAC8_3.c **** 	WaveDAC8_3_SetValue(0u);
  50              		.loc 1 102 0
  51 0018 0020     		movs	r0, #0
  52 001a FFF7FEFF 		bl	WaveDAC8_3_VDAC8_SetValue
  53              	.LVL3:
 103:Generated_Source\PSoC5/WaveDAC8_3.c **** 	
 104:Generated_Source\PSoC5/WaveDAC8_3.c **** 	#if(WaveDAC8_3_CLOCK_SRC == WaveDAC8_3_CLOCK_INT)  	
 105:Generated_Source\PSoC5/WaveDAC8_3.c **** 	   WaveDAC8_3_DacClk_Start();
  54              		.loc 1 105 0
  55 001e FFF7FEFF 		bl	WaveDAC8_3_DacClk_Start
  56              	.LVL4:
  57 0022 10BD     		pop	{r4, pc}
  58              	.L4:
  59              		.align	2
  60              	.L3:
  61 0024 00000000 		.word	.LANCHOR0
  62              		.cfi_endproc
  63              	.LFE1:
  64              		.size	WaveDAC8_3_Enable, .-WaveDAC8_3_Enable
  65              		.section	.text.WaveDAC8_3_Stop,"ax",%progbits
  66              		.align	2
ARM GAS  C:\Users\sepp2\AppData\Local\Temp\ccQCQWMk.s 			page 4


  67              		.global	WaveDAC8_3_Stop
  68              		.thumb
  69              		.thumb_func
  70              		.type	WaveDAC8_3_Stop, %function
  71              	WaveDAC8_3_Stop:
  72              	.LFB4:
 106:Generated_Source\PSoC5/WaveDAC8_3.c **** 	#endif /* WaveDAC8_3_CLOCK_SRC == WaveDAC8_3_CLOCK_INT */
 107:Generated_Source\PSoC5/WaveDAC8_3.c **** }
 108:Generated_Source\PSoC5/WaveDAC8_3.c **** 
 109:Generated_Source\PSoC5/WaveDAC8_3.c **** 
 110:Generated_Source\PSoC5/WaveDAC8_3.c **** /*******************************************************************************
 111:Generated_Source\PSoC5/WaveDAC8_3.c **** * Function Name: WaveDAC8_3_Start
 112:Generated_Source\PSoC5/WaveDAC8_3.c **** ********************************************************************************
 113:Generated_Source\PSoC5/WaveDAC8_3.c **** *
 114:Generated_Source\PSoC5/WaveDAC8_3.c **** * Summary:
 115:Generated_Source\PSoC5/WaveDAC8_3.c **** *  The start function initializes the voltage DAC with the default values, 
 116:Generated_Source\PSoC5/WaveDAC8_3.c **** *  and sets the power to the given level.  A power level of 0, is the same as 
 117:Generated_Source\PSoC5/WaveDAC8_3.c **** *  executing the stop function.
 118:Generated_Source\PSoC5/WaveDAC8_3.c **** *
 119:Generated_Source\PSoC5/WaveDAC8_3.c **** * Parameters:  
 120:Generated_Source\PSoC5/WaveDAC8_3.c **** *  None
 121:Generated_Source\PSoC5/WaveDAC8_3.c **** *
 122:Generated_Source\PSoC5/WaveDAC8_3.c **** * Return: 
 123:Generated_Source\PSoC5/WaveDAC8_3.c **** *  None
 124:Generated_Source\PSoC5/WaveDAC8_3.c **** *
 125:Generated_Source\PSoC5/WaveDAC8_3.c **** * Reentrant:
 126:Generated_Source\PSoC5/WaveDAC8_3.c **** *  No
 127:Generated_Source\PSoC5/WaveDAC8_3.c **** *
 128:Generated_Source\PSoC5/WaveDAC8_3.c **** *******************************************************************************/
 129:Generated_Source\PSoC5/WaveDAC8_3.c **** void WaveDAC8_3_Start(void) 
 130:Generated_Source\PSoC5/WaveDAC8_3.c **** {
 131:Generated_Source\PSoC5/WaveDAC8_3.c **** 	/* If not Initialized then initialize all required hardware and software */
 132:Generated_Source\PSoC5/WaveDAC8_3.c **** 	if(WaveDAC8_3_initVar == 0u)
 133:Generated_Source\PSoC5/WaveDAC8_3.c **** 	{
 134:Generated_Source\PSoC5/WaveDAC8_3.c **** 		WaveDAC8_3_Init();
 135:Generated_Source\PSoC5/WaveDAC8_3.c **** 		WaveDAC8_3_initVar = 1u;
 136:Generated_Source\PSoC5/WaveDAC8_3.c **** 	}
 137:Generated_Source\PSoC5/WaveDAC8_3.c **** 	
 138:Generated_Source\PSoC5/WaveDAC8_3.c **** 	WaveDAC8_3_Enable();
 139:Generated_Source\PSoC5/WaveDAC8_3.c **** }
 140:Generated_Source\PSoC5/WaveDAC8_3.c **** 
 141:Generated_Source\PSoC5/WaveDAC8_3.c **** 
 142:Generated_Source\PSoC5/WaveDAC8_3.c **** /*******************************************************************************
 143:Generated_Source\PSoC5/WaveDAC8_3.c **** * Function Name: WaveDAC8_3_StartEx
 144:Generated_Source\PSoC5/WaveDAC8_3.c **** ********************************************************************************
 145:Generated_Source\PSoC5/WaveDAC8_3.c **** *
 146:Generated_Source\PSoC5/WaveDAC8_3.c **** * Summary:
 147:Generated_Source\PSoC5/WaveDAC8_3.c **** *  The StartEx function sets pointers and sizes for both waveforms
 148:Generated_Source\PSoC5/WaveDAC8_3.c **** *  and then starts the component.
 149:Generated_Source\PSoC5/WaveDAC8_3.c **** *
 150:Generated_Source\PSoC5/WaveDAC8_3.c **** * Parameters:  
 151:Generated_Source\PSoC5/WaveDAC8_3.c **** *   uint8 * wavePtr1:     Pointer to the waveform 1 array.
 152:Generated_Source\PSoC5/WaveDAC8_3.c **** *   uint16  sampleSize1:  The amount of samples in the waveform 1.
 153:Generated_Source\PSoC5/WaveDAC8_3.c **** *   uint8 * wavePtr2:     Pointer to the waveform 2 array.
 154:Generated_Source\PSoC5/WaveDAC8_3.c **** *   uint16  sampleSize2:  The amount of samples in the waveform 2.
 155:Generated_Source\PSoC5/WaveDAC8_3.c **** *
 156:Generated_Source\PSoC5/WaveDAC8_3.c **** * Return: 
ARM GAS  C:\Users\sepp2\AppData\Local\Temp\ccQCQWMk.s 			page 5


 157:Generated_Source\PSoC5/WaveDAC8_3.c **** *  None
 158:Generated_Source\PSoC5/WaveDAC8_3.c **** *
 159:Generated_Source\PSoC5/WaveDAC8_3.c **** * Reentrant:
 160:Generated_Source\PSoC5/WaveDAC8_3.c **** *  No
 161:Generated_Source\PSoC5/WaveDAC8_3.c **** *
 162:Generated_Source\PSoC5/WaveDAC8_3.c **** *******************************************************************************/
 163:Generated_Source\PSoC5/WaveDAC8_3.c **** void WaveDAC8_3_StartEx(const uint8 * wavePtr1, uint16 sampleSize1, const uint8 * wavePtr2, uint16 
 164:Generated_Source\PSoC5/WaveDAC8_3.c **** 
 165:Generated_Source\PSoC5/WaveDAC8_3.c **** {
 166:Generated_Source\PSoC5/WaveDAC8_3.c **** 	WaveDAC8_3_Wave1Setup(wavePtr1, sampleSize1);
 167:Generated_Source\PSoC5/WaveDAC8_3.c **** 	WaveDAC8_3_Wave2Setup(wavePtr2, sampleSize2);
 168:Generated_Source\PSoC5/WaveDAC8_3.c **** 	WaveDAC8_3_Start();
 169:Generated_Source\PSoC5/WaveDAC8_3.c **** }
 170:Generated_Source\PSoC5/WaveDAC8_3.c **** 
 171:Generated_Source\PSoC5/WaveDAC8_3.c **** 
 172:Generated_Source\PSoC5/WaveDAC8_3.c **** /*******************************************************************************
 173:Generated_Source\PSoC5/WaveDAC8_3.c **** * Function Name: WaveDAC8_3_Stop
 174:Generated_Source\PSoC5/WaveDAC8_3.c **** ********************************************************************************
 175:Generated_Source\PSoC5/WaveDAC8_3.c **** *
 176:Generated_Source\PSoC5/WaveDAC8_3.c **** * Summary:
 177:Generated_Source\PSoC5/WaveDAC8_3.c **** *  Stops the clock (if internal), disables the DMA channels
 178:Generated_Source\PSoC5/WaveDAC8_3.c **** *  and powers down the DAC.
 179:Generated_Source\PSoC5/WaveDAC8_3.c **** *
 180:Generated_Source\PSoC5/WaveDAC8_3.c **** * Parameters:  
 181:Generated_Source\PSoC5/WaveDAC8_3.c **** *  None  
 182:Generated_Source\PSoC5/WaveDAC8_3.c **** *
 183:Generated_Source\PSoC5/WaveDAC8_3.c **** * Return: 
 184:Generated_Source\PSoC5/WaveDAC8_3.c **** *  None
 185:Generated_Source\PSoC5/WaveDAC8_3.c **** *
 186:Generated_Source\PSoC5/WaveDAC8_3.c **** *******************************************************************************/
 187:Generated_Source\PSoC5/WaveDAC8_3.c **** void WaveDAC8_3_Stop(void) 
 188:Generated_Source\PSoC5/WaveDAC8_3.c **** {
  73              		.loc 1 188 0
  74              		.cfi_startproc
  75              		@ args = 0, pretend = 0, frame = 0
  76              		@ frame_needed = 0, uses_anonymous_args = 0
  77 0000 10B5     		push	{r4, lr}
  78              		.cfi_def_cfa_offset 8
  79              		.cfi_offset 4, -8
  80              		.cfi_offset 14, -4
 189:Generated_Source\PSoC5/WaveDAC8_3.c **** 	/* Turn off internal clock, if one present */
 190:Generated_Source\PSoC5/WaveDAC8_3.c **** 	#if(WaveDAC8_3_CLOCK_SRC == WaveDAC8_3_CLOCK_INT)  	
 191:Generated_Source\PSoC5/WaveDAC8_3.c **** 	   WaveDAC8_3_DacClk_Stop();
  81              		.loc 1 191 0
  82 0002 FFF7FEFF 		bl	WaveDAC8_3_DacClk_Stop
  83              	.LVL5:
 192:Generated_Source\PSoC5/WaveDAC8_3.c **** 	#endif /* WaveDAC8_3_CLOCK_SRC == WaveDAC8_3_CLOCK_INT */
 193:Generated_Source\PSoC5/WaveDAC8_3.c **** 	
 194:Generated_Source\PSoC5/WaveDAC8_3.c **** 	/* Disble DMA channels */
 195:Generated_Source\PSoC5/WaveDAC8_3.c **** 	(void)CyDmaChDisable(WaveDAC8_3_Wave1Chan);
  84              		.loc 1 195 0
  85 0006 054C     		ldr	r4, .L7
  86 0008 2078     		ldrb	r0, [r4]	@ zero_extendqisi2
  87 000a FFF7FEFF 		bl	CyDmaChDisable
  88              	.LVL6:
 196:Generated_Source\PSoC5/WaveDAC8_3.c **** 	(void)CyDmaChDisable(WaveDAC8_3_Wave2Chan);
  89              		.loc 1 196 0
ARM GAS  C:\Users\sepp2\AppData\Local\Temp\ccQCQWMk.s 			page 6


  90 000e 6078     		ldrb	r0, [r4, #1]	@ zero_extendqisi2
  91 0010 FFF7FEFF 		bl	CyDmaChDisable
  92              	.LVL7:
 197:Generated_Source\PSoC5/WaveDAC8_3.c **** 
 198:Generated_Source\PSoC5/WaveDAC8_3.c **** 	/* Disable power to DAC */
 199:Generated_Source\PSoC5/WaveDAC8_3.c **** 	WaveDAC8_3_VDAC8_Stop();
  93              		.loc 1 199 0
  94 0014 FFF7FEFF 		bl	WaveDAC8_3_VDAC8_Stop
  95              	.LVL8:
  96 0018 10BD     		pop	{r4, pc}
  97              	.L8:
  98 001a 00BF     		.align	2
  99              	.L7:
 100 001c 00000000 		.word	.LANCHOR0
 101              		.cfi_endproc
 102              	.LFE4:
 103              		.size	WaveDAC8_3_Stop, .-WaveDAC8_3_Stop
 104              		.section	.text.WaveDAC8_3_Wave1Setup,"ax",%progbits
 105              		.align	2
 106              		.global	WaveDAC8_3_Wave1Setup
 107              		.thumb
 108              		.thumb_func
 109              		.type	WaveDAC8_3_Wave1Setup, %function
 110              	WaveDAC8_3_Wave1Setup:
 111              	.LFB5:
 200:Generated_Source\PSoC5/WaveDAC8_3.c **** }
 201:Generated_Source\PSoC5/WaveDAC8_3.c **** 
 202:Generated_Source\PSoC5/WaveDAC8_3.c **** 
 203:Generated_Source\PSoC5/WaveDAC8_3.c **** /*******************************************************************************
 204:Generated_Source\PSoC5/WaveDAC8_3.c **** * Function Name: WaveDAC8_3_Wave1Setup
 205:Generated_Source\PSoC5/WaveDAC8_3.c **** ********************************************************************************
 206:Generated_Source\PSoC5/WaveDAC8_3.c **** *
 207:Generated_Source\PSoC5/WaveDAC8_3.c **** * Summary:
 208:Generated_Source\PSoC5/WaveDAC8_3.c **** *  Sets pointer and size for waveform 1.                                    
 209:Generated_Source\PSoC5/WaveDAC8_3.c **** *
 210:Generated_Source\PSoC5/WaveDAC8_3.c **** * Parameters:  
 211:Generated_Source\PSoC5/WaveDAC8_3.c **** *  uint8 * WavePtr:     Pointer to the waveform array.
 212:Generated_Source\PSoC5/WaveDAC8_3.c **** *  uint16  SampleSize:  The amount of samples in the waveform.
 213:Generated_Source\PSoC5/WaveDAC8_3.c **** *
 214:Generated_Source\PSoC5/WaveDAC8_3.c **** * Return: 
 215:Generated_Source\PSoC5/WaveDAC8_3.c **** *  None 
 216:Generated_Source\PSoC5/WaveDAC8_3.c **** *
 217:Generated_Source\PSoC5/WaveDAC8_3.c **** *******************************************************************************/
 218:Generated_Source\PSoC5/WaveDAC8_3.c **** void WaveDAC8_3_Wave1Setup(const uint8 * wavePtr, uint16 sampleSize)
 219:Generated_Source\PSoC5/WaveDAC8_3.c **** 
 220:Generated_Source\PSoC5/WaveDAC8_3.c **** {
 112              		.loc 1 220 0
 113              		.cfi_startproc
 114              		@ args = 0, pretend = 0, frame = 0
 115              		@ frame_needed = 0, uses_anonymous_args = 0
 116              	.LVL9:
 117 0000 70B5     		push	{r4, r5, r6, lr}
 118              		.cfi_def_cfa_offset 16
 119              		.cfi_offset 4, -16
 120              		.cfi_offset 5, -12
 121              		.cfi_offset 6, -8
 122              		.cfi_offset 14, -4
ARM GAS  C:\Users\sepp2\AppData\Local\Temp\ccQCQWMk.s 			page 7


 123 0002 0546     		mov	r5, r0
 124 0004 0E46     		mov	r6, r1
 221:Generated_Source\PSoC5/WaveDAC8_3.c **** 	#if (CY_PSOC3)
 222:Generated_Source\PSoC5/WaveDAC8_3.c **** 		uint16 memoryType; /* determining the source memory type */
 223:Generated_Source\PSoC5/WaveDAC8_3.c **** 		memoryType = (WaveDAC8_3_HI16FLASHPTR == HI16(wavePtr)) ? HI16(CYDEV_FLS_BASE) : HI16(CYDEV_SRAM_
 224:Generated_Source\PSoC5/WaveDAC8_3.c **** 		
 225:Generated_Source\PSoC5/WaveDAC8_3.c **** 		WaveDAC8_3_Wave1Chan = WaveDAC8_3_Wave1_DMA_DmaInitialize(
 226:Generated_Source\PSoC5/WaveDAC8_3.c **** 		WaveDAC8_3_Wave1_DMA_BYTES_PER_BURST, WaveDAC8_3_Wave1_DMA_REQUEST_PER_BURST,
 227:Generated_Source\PSoC5/WaveDAC8_3.c **** 		memoryType, HI16(CYDEV_PERIPH_BASE));
 228:Generated_Source\PSoC5/WaveDAC8_3.c **** 	#else /* PSoC 5 */
 229:Generated_Source\PSoC5/WaveDAC8_3.c **** 		WaveDAC8_3_Wave1Chan = WaveDAC8_3_Wave1_DMA_DmaInitialize(
 125              		.loc 1 229 0
 126 0006 4FF48043 		mov	r3, #16384
 127 000a 020C     		lsrs	r2, r0, #16
 128 000c 0121     		movs	r1, #1
 129              	.LVL10:
 130 000e 0846     		mov	r0, r1
 131              	.LVL11:
 132 0010 FFF7FEFF 		bl	WaveDAC8_3_Wave1_DMA_DmaInitialize
 133              	.LVL12:
 134 0014 094C     		ldr	r4, .L11
 135 0016 2070     		strb	r0, [r4]
 230:Generated_Source\PSoC5/WaveDAC8_3.c **** 		WaveDAC8_3_Wave1_DMA_BYTES_PER_BURST, WaveDAC8_3_Wave1_DMA_REQUEST_PER_BURST,
 231:Generated_Source\PSoC5/WaveDAC8_3.c **** 		HI16(wavePtr), HI16(WaveDAC8_3_DAC8__D));
 232:Generated_Source\PSoC5/WaveDAC8_3.c **** 	#endif /* CY_PSOC3 */
 233:Generated_Source\PSoC5/WaveDAC8_3.c **** 	
 234:Generated_Source\PSoC5/WaveDAC8_3.c **** 	/*
 235:Generated_Source\PSoC5/WaveDAC8_3.c **** 	* TD is looping on itself. 
 236:Generated_Source\PSoC5/WaveDAC8_3.c ****     * Increment the source address, but not the destination address. 
 237:Generated_Source\PSoC5/WaveDAC8_3.c **** 	*/
 238:Generated_Source\PSoC5/WaveDAC8_3.c **** 	(void)CyDmaTdSetConfiguration(WaveDAC8_3_Wave1TD, sampleSize, WaveDAC8_3_Wave1TD, 
 136              		.loc 1 238 0
 137 0018 A078     		ldrb	r0, [r4, #2]	@ zero_extendqisi2
 138 001a 0123     		movs	r3, #1
 139 001c 0246     		mov	r2, r0
 140 001e 3146     		mov	r1, r6
 141 0020 FFF7FEFF 		bl	CyDmaTdSetConfiguration
 142              	.LVL13:
 239:Generated_Source\PSoC5/WaveDAC8_3.c ****                                     (uint8)CY_DMA_TD_INC_SRC_ADR | (uint8)WaveDAC8_3_Wave1_DMA__TD_
 240:Generated_Source\PSoC5/WaveDAC8_3.c **** 	
 241:Generated_Source\PSoC5/WaveDAC8_3.c **** 	/* Set the TD source and destination address */
 242:Generated_Source\PSoC5/WaveDAC8_3.c **** 	(void)CyDmaTdSetAddress(WaveDAC8_3_Wave1TD, LO16((uint32)wavePtr), LO16(WaveDAC8_3_DAC8__D));
 143              		.loc 1 242 0
 144 0024 4FF4B742 		mov	r2, #23424
 145 0028 A9B2     		uxth	r1, r5
 146 002a A078     		ldrb	r0, [r4, #2]	@ zero_extendqisi2
 147 002c FFF7FEFF 		bl	CyDmaTdSetAddress
 148              	.LVL14:
 243:Generated_Source\PSoC5/WaveDAC8_3.c **** 	
 244:Generated_Source\PSoC5/WaveDAC8_3.c **** 	/* Associate the TD with the channel */
 245:Generated_Source\PSoC5/WaveDAC8_3.c **** 	(void)CyDmaChSetInitialTd(WaveDAC8_3_Wave1Chan, WaveDAC8_3_Wave1TD);
 149              		.loc 1 245 0
 150 0030 A178     		ldrb	r1, [r4, #2]	@ zero_extendqisi2
 151 0032 2078     		ldrb	r0, [r4]	@ zero_extendqisi2
 152 0034 FFF7FEFF 		bl	CyDmaChSetInitialTd
 153              	.LVL15:
 154 0038 70BD     		pop	{r4, r5, r6, pc}
ARM GAS  C:\Users\sepp2\AppData\Local\Temp\ccQCQWMk.s 			page 8


 155              	.LVL16:
 156              	.L12:
 157 003a 00BF     		.align	2
 158              	.L11:
 159 003c 00000000 		.word	.LANCHOR0
 160              		.cfi_endproc
 161              	.LFE5:
 162              		.size	WaveDAC8_3_Wave1Setup, .-WaveDAC8_3_Wave1Setup
 163              		.section	.text.WaveDAC8_3_Wave2Setup,"ax",%progbits
 164              		.align	2
 165              		.global	WaveDAC8_3_Wave2Setup
 166              		.thumb
 167              		.thumb_func
 168              		.type	WaveDAC8_3_Wave2Setup, %function
 169              	WaveDAC8_3_Wave2Setup:
 170              	.LFB6:
 246:Generated_Source\PSoC5/WaveDAC8_3.c **** }
 247:Generated_Source\PSoC5/WaveDAC8_3.c **** 
 248:Generated_Source\PSoC5/WaveDAC8_3.c **** 
 249:Generated_Source\PSoC5/WaveDAC8_3.c **** /*******************************************************************************
 250:Generated_Source\PSoC5/WaveDAC8_3.c **** * Function Name: WaveDAC8_3_Wave2Setup
 251:Generated_Source\PSoC5/WaveDAC8_3.c **** ********************************************************************************
 252:Generated_Source\PSoC5/WaveDAC8_3.c **** *
 253:Generated_Source\PSoC5/WaveDAC8_3.c **** * Summary:
 254:Generated_Source\PSoC5/WaveDAC8_3.c **** *  Sets pointer and size for waveform 2.                                    
 255:Generated_Source\PSoC5/WaveDAC8_3.c **** *
 256:Generated_Source\PSoC5/WaveDAC8_3.c **** * Parameters:  
 257:Generated_Source\PSoC5/WaveDAC8_3.c **** *  uint8 * WavePtr:     Pointer to the waveform array.
 258:Generated_Source\PSoC5/WaveDAC8_3.c **** *  uint16  SampleSize:  The amount of samples in the waveform.
 259:Generated_Source\PSoC5/WaveDAC8_3.c **** *
 260:Generated_Source\PSoC5/WaveDAC8_3.c **** * Return: 
 261:Generated_Source\PSoC5/WaveDAC8_3.c **** *  None
 262:Generated_Source\PSoC5/WaveDAC8_3.c **** *
 263:Generated_Source\PSoC5/WaveDAC8_3.c **** *******************************************************************************/
 264:Generated_Source\PSoC5/WaveDAC8_3.c **** void WaveDAC8_3_Wave2Setup(const uint8 * wavePtr, uint16 sampleSize)
 265:Generated_Source\PSoC5/WaveDAC8_3.c ****  
 266:Generated_Source\PSoC5/WaveDAC8_3.c **** {
 171              		.loc 1 266 0
 172              		.cfi_startproc
 173              		@ args = 0, pretend = 0, frame = 0
 174              		@ frame_needed = 0, uses_anonymous_args = 0
 175              	.LVL17:
 176 0000 70B5     		push	{r4, r5, r6, lr}
 177              		.cfi_def_cfa_offset 16
 178              		.cfi_offset 4, -16
 179              		.cfi_offset 5, -12
 180              		.cfi_offset 6, -8
 181              		.cfi_offset 14, -4
 182 0002 0546     		mov	r5, r0
 183 0004 0E46     		mov	r6, r1
 267:Generated_Source\PSoC5/WaveDAC8_3.c **** 	#if (CY_PSOC3)
 268:Generated_Source\PSoC5/WaveDAC8_3.c **** 		uint16 memoryType; /* determining the source memory type */
 269:Generated_Source\PSoC5/WaveDAC8_3.c **** 		memoryType = (WaveDAC8_3_HI16FLASHPTR == HI16(wavePtr)) ? HI16(CYDEV_FLS_BASE) : HI16(CYDEV_SRAM_
 270:Generated_Source\PSoC5/WaveDAC8_3.c **** 			
 271:Generated_Source\PSoC5/WaveDAC8_3.c **** 		WaveDAC8_3_Wave2Chan = WaveDAC8_3_Wave2_DMA_DmaInitialize(
 272:Generated_Source\PSoC5/WaveDAC8_3.c **** 		WaveDAC8_3_Wave2_DMA_BYTES_PER_BURST, WaveDAC8_3_Wave2_DMA_REQUEST_PER_BURST,
 273:Generated_Source\PSoC5/WaveDAC8_3.c **** 		memoryType, HI16(CYDEV_PERIPH_BASE));
ARM GAS  C:\Users\sepp2\AppData\Local\Temp\ccQCQWMk.s 			page 9


 274:Generated_Source\PSoC5/WaveDAC8_3.c **** 	#else /* PSoC 5 */
 275:Generated_Source\PSoC5/WaveDAC8_3.c **** 		WaveDAC8_3_Wave2Chan = WaveDAC8_3_Wave2_DMA_DmaInitialize(
 184              		.loc 1 275 0
 185 0006 4FF48043 		mov	r3, #16384
 186 000a 020C     		lsrs	r2, r0, #16
 187 000c 0121     		movs	r1, #1
 188              	.LVL18:
 189 000e 0846     		mov	r0, r1
 190              	.LVL19:
 191 0010 FFF7FEFF 		bl	WaveDAC8_3_Wave2_DMA_DmaInitialize
 192              	.LVL20:
 193 0014 094C     		ldr	r4, .L15
 194 0016 6070     		strb	r0, [r4, #1]
 276:Generated_Source\PSoC5/WaveDAC8_3.c **** 		WaveDAC8_3_Wave2_DMA_BYTES_PER_BURST, WaveDAC8_3_Wave2_DMA_REQUEST_PER_BURST,
 277:Generated_Source\PSoC5/WaveDAC8_3.c **** 		HI16(wavePtr), HI16(WaveDAC8_3_DAC8__D));
 278:Generated_Source\PSoC5/WaveDAC8_3.c **** 	#endif /* CY_PSOC3 */
 279:Generated_Source\PSoC5/WaveDAC8_3.c **** 	
 280:Generated_Source\PSoC5/WaveDAC8_3.c **** 	/*
 281:Generated_Source\PSoC5/WaveDAC8_3.c **** 	* TD is looping on itself. 
 282:Generated_Source\PSoC5/WaveDAC8_3.c **** 	* Increment the source address, but not the destination address. 
 283:Generated_Source\PSoC5/WaveDAC8_3.c **** 	*/
 284:Generated_Source\PSoC5/WaveDAC8_3.c **** 	(void)CyDmaTdSetConfiguration(WaveDAC8_3_Wave2TD, sampleSize, WaveDAC8_3_Wave2TD, 
 195              		.loc 1 284 0
 196 0018 E078     		ldrb	r0, [r4, #3]	@ zero_extendqisi2
 197 001a 0123     		movs	r3, #1
 198 001c 0246     		mov	r2, r0
 199 001e 3146     		mov	r1, r6
 200 0020 FFF7FEFF 		bl	CyDmaTdSetConfiguration
 201              	.LVL21:
 285:Generated_Source\PSoC5/WaveDAC8_3.c ****                                     (uint8)CY_DMA_TD_INC_SRC_ADR | (uint8)WaveDAC8_3_Wave2_DMA__TD_
 286:Generated_Source\PSoC5/WaveDAC8_3.c **** 	
 287:Generated_Source\PSoC5/WaveDAC8_3.c **** 	/* Set the TD source and destination address */
 288:Generated_Source\PSoC5/WaveDAC8_3.c **** 	(void)CyDmaTdSetAddress(WaveDAC8_3_Wave2TD, LO16((uint32)wavePtr), LO16(WaveDAC8_3_DAC8__D));
 202              		.loc 1 288 0
 203 0024 4FF4B742 		mov	r2, #23424
 204 0028 A9B2     		uxth	r1, r5
 205 002a E078     		ldrb	r0, [r4, #3]	@ zero_extendqisi2
 206 002c FFF7FEFF 		bl	CyDmaTdSetAddress
 207              	.LVL22:
 289:Generated_Source\PSoC5/WaveDAC8_3.c **** 	
 290:Generated_Source\PSoC5/WaveDAC8_3.c **** 	/* Associate the TD with the channel */
 291:Generated_Source\PSoC5/WaveDAC8_3.c **** 	(void)CyDmaChSetInitialTd(WaveDAC8_3_Wave2Chan, WaveDAC8_3_Wave2TD);
 208              		.loc 1 291 0
 209 0030 E178     		ldrb	r1, [r4, #3]	@ zero_extendqisi2
 210 0032 6078     		ldrb	r0, [r4, #1]	@ zero_extendqisi2
 211 0034 FFF7FEFF 		bl	CyDmaChSetInitialTd
 212              	.LVL23:
 213 0038 70BD     		pop	{r4, r5, r6, pc}
 214              	.LVL24:
 215              	.L16:
 216 003a 00BF     		.align	2
 217              	.L15:
 218 003c 00000000 		.word	.LANCHOR0
 219              		.cfi_endproc
 220              	.LFE6:
 221              		.size	WaveDAC8_3_Wave2Setup, .-WaveDAC8_3_Wave2Setup
 222              		.section	.text.WaveDAC8_3_Init,"ax",%progbits
ARM GAS  C:\Users\sepp2\AppData\Local\Temp\ccQCQWMk.s 			page 10


 223              		.align	2
 224              		.global	WaveDAC8_3_Init
 225              		.thumb
 226              		.thumb_func
 227              		.type	WaveDAC8_3_Init, %function
 228              	WaveDAC8_3_Init:
 229              	.LFB0:
  44:Generated_Source\PSoC5/WaveDAC8_3.c **** 	WaveDAC8_3_VDAC8_Init();
 230              		.loc 1 44 0
 231              		.cfi_startproc
 232              		@ args = 0, pretend = 0, frame = 0
 233              		@ frame_needed = 0, uses_anonymous_args = 0
 234 0000 10B5     		push	{r4, lr}
 235              		.cfi_def_cfa_offset 8
 236              		.cfi_offset 4, -8
 237              		.cfi_offset 14, -4
  45:Generated_Source\PSoC5/WaveDAC8_3.c **** 	WaveDAC8_3_VDAC8_SetSpeed(WaveDAC8_3_HIGHSPEED);
 238              		.loc 1 45 0
 239 0002 FFF7FEFF 		bl	WaveDAC8_3_VDAC8_Init
 240              	.LVL25:
  46:Generated_Source\PSoC5/WaveDAC8_3.c **** 	WaveDAC8_3_VDAC8_SetRange(WaveDAC8_3_DAC_RANGE);
 241              		.loc 1 46 0
 242 0006 0220     		movs	r0, #2
 243 0008 FFF7FEFF 		bl	WaveDAC8_3_VDAC8_SetSpeed
 244              	.LVL26:
  47:Generated_Source\PSoC5/WaveDAC8_3.c **** 
 245              		.loc 1 47 0
 246 000c 0020     		movs	r0, #0
 247 000e FFF7FEFF 		bl	WaveDAC8_3_VDAC8_SetRange
 248              	.LVL27:
  58:Generated_Source\PSoC5/WaveDAC8_3.c **** 	WaveDAC8_3_Wave2TD = CyDmaTdAllocate();
 249              		.loc 1 58 0
 250 0012 FFF7FEFF 		bl	CyDmaTdAllocate
 251              	.LVL28:
 252 0016 084C     		ldr	r4, .L19
 253 0018 A070     		strb	r0, [r4, #2]
  59:Generated_Source\PSoC5/WaveDAC8_3.c **** 	
 254              		.loc 1 59 0
 255 001a FFF7FEFF 		bl	CyDmaTdAllocate
 256              	.LVL29:
 257 001e E070     		strb	r0, [r4, #3]
  62:Generated_Source\PSoC5/WaveDAC8_3.c **** 	WaveDAC8_3_Wave2Setup(WaveDAC8_3_wave2, WaveDAC8_3_WAVE2_LENGTH) ;
 258              		.loc 1 62 0
 259 0020 064C     		ldr	r4, .L19+4
 260 0022 BC21     		movs	r1, #188
 261 0024 2046     		mov	r0, r4
 262 0026 FFF7FEFF 		bl	WaveDAC8_3_Wave1Setup
 263              	.LVL30:
  63:Generated_Source\PSoC5/WaveDAC8_3.c **** 	
 264              		.loc 1 63 0
 265 002a 6421     		movs	r1, #100
 266 002c 04F1BC00 		add	r0, r4, #188
 267 0030 FFF7FEFF 		bl	WaveDAC8_3_Wave2Setup
 268              	.LVL31:
 269 0034 10BD     		pop	{r4, pc}
 270              	.L20:
 271 0036 00BF     		.align	2
ARM GAS  C:\Users\sepp2\AppData\Local\Temp\ccQCQWMk.s 			page 11


 272              	.L19:
 273 0038 00000000 		.word	.LANCHOR0
 274 003c 00000000 		.word	.LANCHOR1
 275              		.cfi_endproc
 276              	.LFE0:
 277              		.size	WaveDAC8_3_Init, .-WaveDAC8_3_Init
 278              		.section	.text.WaveDAC8_3_Start,"ax",%progbits
 279              		.align	2
 280              		.global	WaveDAC8_3_Start
 281              		.thumb
 282              		.thumb_func
 283              		.type	WaveDAC8_3_Start, %function
 284              	WaveDAC8_3_Start:
 285              	.LFB2:
 130:Generated_Source\PSoC5/WaveDAC8_3.c **** 	/* If not Initialized then initialize all required hardware and software */
 286              		.loc 1 130 0
 287              		.cfi_startproc
 288              		@ args = 0, pretend = 0, frame = 0
 289              		@ frame_needed = 0, uses_anonymous_args = 0
 290 0000 08B5     		push	{r3, lr}
 291              		.cfi_def_cfa_offset 8
 292              		.cfi_offset 3, -8
 293              		.cfi_offset 14, -4
 132:Generated_Source\PSoC5/WaveDAC8_3.c **** 	{
 294              		.loc 1 132 0
 295 0002 054B     		ldr	r3, .L24
 296 0004 1B79     		ldrb	r3, [r3, #4]	@ zero_extendqisi2
 297 0006 23B9     		cbnz	r3, .L22
 134:Generated_Source\PSoC5/WaveDAC8_3.c **** 		WaveDAC8_3_initVar = 1u;
 298              		.loc 1 134 0
 299 0008 FFF7FEFF 		bl	WaveDAC8_3_Init
 300              	.LVL32:
 135:Generated_Source\PSoC5/WaveDAC8_3.c **** 	}
 301              		.loc 1 135 0
 302 000c 0122     		movs	r2, #1
 303 000e 024B     		ldr	r3, .L24
 304 0010 1A71     		strb	r2, [r3, #4]
 305              	.L22:
 138:Generated_Source\PSoC5/WaveDAC8_3.c **** }
 306              		.loc 1 138 0
 307 0012 FFF7FEFF 		bl	WaveDAC8_3_Enable
 308              	.LVL33:
 309 0016 08BD     		pop	{r3, pc}
 310              	.L25:
 311              		.align	2
 312              	.L24:
 313 0018 00000000 		.word	.LANCHOR0
 314              		.cfi_endproc
 315              	.LFE2:
 316              		.size	WaveDAC8_3_Start, .-WaveDAC8_3_Start
 317              		.section	.text.WaveDAC8_3_StartEx,"ax",%progbits
 318              		.align	2
 319              		.global	WaveDAC8_3_StartEx
 320              		.thumb
 321              		.thumb_func
 322              		.type	WaveDAC8_3_StartEx, %function
 323              	WaveDAC8_3_StartEx:
ARM GAS  C:\Users\sepp2\AppData\Local\Temp\ccQCQWMk.s 			page 12


 324              	.LFB3:
 165:Generated_Source\PSoC5/WaveDAC8_3.c **** 	WaveDAC8_3_Wave1Setup(wavePtr1, sampleSize1);
 325              		.loc 1 165 0
 326              		.cfi_startproc
 327              		@ args = 0, pretend = 0, frame = 0
 328              		@ frame_needed = 0, uses_anonymous_args = 0
 329              	.LVL34:
 330 0000 38B5     		push	{r3, r4, r5, lr}
 331              		.cfi_def_cfa_offset 16
 332              		.cfi_offset 3, -16
 333              		.cfi_offset 4, -12
 334              		.cfi_offset 5, -8
 335              		.cfi_offset 14, -4
 336 0002 1446     		mov	r4, r2
 337 0004 1D46     		mov	r5, r3
 166:Generated_Source\PSoC5/WaveDAC8_3.c **** 	WaveDAC8_3_Wave2Setup(wavePtr2, sampleSize2);
 338              		.loc 1 166 0
 339 0006 FFF7FEFF 		bl	WaveDAC8_3_Wave1Setup
 340              	.LVL35:
 167:Generated_Source\PSoC5/WaveDAC8_3.c **** 	WaveDAC8_3_Start();
 341              		.loc 1 167 0
 342 000a 2946     		mov	r1, r5
 343 000c 2046     		mov	r0, r4
 344 000e FFF7FEFF 		bl	WaveDAC8_3_Wave2Setup
 345              	.LVL36:
 168:Generated_Source\PSoC5/WaveDAC8_3.c **** }
 346              		.loc 1 168 0
 347 0012 FFF7FEFF 		bl	WaveDAC8_3_Start
 348              	.LVL37:
 349 0016 38BD     		pop	{r3, r4, r5, pc}
 350              		.cfi_endproc
 351              	.LFE3:
 352              		.size	WaveDAC8_3_StartEx, .-WaveDAC8_3_StartEx
 353              		.global	WaveDAC8_3_wave2
 354              		.global	WaveDAC8_3_wave1
 355              		.global	WaveDAC8_3_initVar
 356              		.section	.rodata
 357              		.align	2
 358              		.set	.LANCHOR1,. + 0
 359              		.type	WaveDAC8_3_wave1, %object
 360              		.size	WaveDAC8_3_wave1, 188
 361              	WaveDAC8_3_wave1:
 362 0000 7D       		.byte	125
 363 0001 81       		.byte	-127
 364 0002 85       		.byte	-123
 365 0003 8A       		.byte	-118
 366 0004 8E       		.byte	-114
 367 0005 92       		.byte	-110
 368 0006 96       		.byte	-106
 369 0007 9A       		.byte	-102
 370 0008 9E       		.byte	-98
 371 0009 A2       		.byte	-94
 372 000a A6       		.byte	-90
 373 000b AA       		.byte	-86
 374 000c AE       		.byte	-82
 375 000d B2       		.byte	-78
 376 000e B5       		.byte	-75
ARM GAS  C:\Users\sepp2\AppData\Local\Temp\ccQCQWMk.s 			page 13


 377 000f B9       		.byte	-71
 378 0010 BD       		.byte	-67
 379 0011 C0       		.byte	-64
 380 0012 C4       		.byte	-60
 381 0013 C7       		.byte	-57
 382 0014 CA       		.byte	-54
 383 0015 CE       		.byte	-50
 384 0016 D1       		.byte	-47
 385 0017 D4       		.byte	-44
 386 0018 D7       		.byte	-41
 387 0019 DA       		.byte	-38
 388 001a DC       		.byte	-36
 389 001b DF       		.byte	-33
 390 001c E2       		.byte	-30
 391 001d E4       		.byte	-28
 392 001e E6       		.byte	-26
 393 001f E9       		.byte	-23
 394 0020 EB       		.byte	-21
 395 0021 ED       		.byte	-19
 396 0022 EE       		.byte	-18
 397 0023 F0       		.byte	-16
 398 0024 F2       		.byte	-14
 399 0025 F3       		.byte	-13
 400 0026 F4       		.byte	-12
 401 0027 F6       		.byte	-10
 402 0028 F7       		.byte	-9
 403 0029 F7       		.byte	-9
 404 002a F8       		.byte	-8
 405 002b F9       		.byte	-7
 406 002c F9       		.byte	-7
 407 002d FA       		.byte	-6
 408 002e FA       		.byte	-6
 409 002f FA       		.byte	-6
 410 0030 FA       		.byte	-6
 411 0031 FA       		.byte	-6
 412 0032 F9       		.byte	-7
 413 0033 F9       		.byte	-7
 414 0034 F8       		.byte	-8
 415 0035 F7       		.byte	-9
 416 0036 F7       		.byte	-9
 417 0037 F6       		.byte	-10
 418 0038 F4       		.byte	-12
 419 0039 F3       		.byte	-13
 420 003a F2       		.byte	-14
 421 003b F0       		.byte	-16
 422 003c EE       		.byte	-18
 423 003d ED       		.byte	-19
 424 003e EB       		.byte	-21
 425 003f E9       		.byte	-23
 426 0040 E6       		.byte	-26
 427 0041 E4       		.byte	-28
 428 0042 E2       		.byte	-30
 429 0043 DF       		.byte	-33
 430 0044 DC       		.byte	-36
 431 0045 DA       		.byte	-38
 432 0046 D7       		.byte	-41
 433 0047 D4       		.byte	-44
ARM GAS  C:\Users\sepp2\AppData\Local\Temp\ccQCQWMk.s 			page 14


 434 0048 D1       		.byte	-47
 435 0049 CE       		.byte	-50
 436 004a CA       		.byte	-54
 437 004b C7       		.byte	-57
 438 004c C4       		.byte	-60
 439 004d C0       		.byte	-64
 440 004e BD       		.byte	-67
 441 004f B9       		.byte	-71
 442 0050 B5       		.byte	-75
 443 0051 B2       		.byte	-78
 444 0052 AE       		.byte	-82
 445 0053 AA       		.byte	-86
 446 0054 A6       		.byte	-90
 447 0055 A2       		.byte	-94
 448 0056 9E       		.byte	-98
 449 0057 9A       		.byte	-102
 450 0058 96       		.byte	-106
 451 0059 92       		.byte	-110
 452 005a 8E       		.byte	-114
 453 005b 8A       		.byte	-118
 454 005c 85       		.byte	-123
 455 005d 81       		.byte	-127
 456 005e 7D       		.byte	125
 457 005f 79       		.byte	121
 458 0060 75       		.byte	117
 459 0061 70       		.byte	112
 460 0062 6C       		.byte	108
 461 0063 68       		.byte	104
 462 0064 64       		.byte	100
 463 0065 60       		.byte	96
 464 0066 5C       		.byte	92
 465 0067 58       		.byte	88
 466 0068 54       		.byte	84
 467 0069 50       		.byte	80
 468 006a 4C       		.byte	76
 469 006b 48       		.byte	72
 470 006c 45       		.byte	69
 471 006d 41       		.byte	65
 472 006e 3D       		.byte	61
 473 006f 3A       		.byte	58
 474 0070 36       		.byte	54
 475 0071 33       		.byte	51
 476 0072 30       		.byte	48
 477 0073 2C       		.byte	44
 478 0074 29       		.byte	41
 479 0075 26       		.byte	38
 480 0076 23       		.byte	35
 481 0077 20       		.byte	32
 482 0078 1E       		.byte	30
 483 0079 1B       		.byte	27
 484 007a 18       		.byte	24
 485 007b 16       		.byte	22
 486 007c 14       		.byte	20
 487 007d 11       		.byte	17
 488 007e 0F       		.byte	15
 489 007f 0D       		.byte	13
 490 0080 0C       		.byte	12
ARM GAS  C:\Users\sepp2\AppData\Local\Temp\ccQCQWMk.s 			page 15


 491 0081 0A       		.byte	10
 492 0082 08       		.byte	8
 493 0083 07       		.byte	7
 494 0084 06       		.byte	6
 495 0085 04       		.byte	4
 496 0086 03       		.byte	3
 497 0087 03       		.byte	3
 498 0088 02       		.byte	2
 499 0089 01       		.byte	1
 500 008a 01       		.byte	1
 501 008b 00       		.byte	0
 502 008c 00       		.byte	0
 503 008d 00       		.byte	0
 504 008e 00       		.byte	0
 505 008f 00       		.byte	0
 506 0090 01       		.byte	1
 507 0091 01       		.byte	1
 508 0092 02       		.byte	2
 509 0093 03       		.byte	3
 510 0094 03       		.byte	3
 511 0095 04       		.byte	4
 512 0096 06       		.byte	6
 513 0097 07       		.byte	7
 514 0098 08       		.byte	8
 515 0099 0A       		.byte	10
 516 009a 0C       		.byte	12
 517 009b 0D       		.byte	13
 518 009c 0F       		.byte	15
 519 009d 11       		.byte	17
 520 009e 14       		.byte	20
 521 009f 16       		.byte	22
 522 00a0 18       		.byte	24
 523 00a1 1B       		.byte	27
 524 00a2 1E       		.byte	30
 525 00a3 20       		.byte	32
 526 00a4 23       		.byte	35
 527 00a5 26       		.byte	38
 528 00a6 29       		.byte	41
 529 00a7 2C       		.byte	44
 530 00a8 30       		.byte	48
 531 00a9 33       		.byte	51
 532 00aa 36       		.byte	54
 533 00ab 3A       		.byte	58
 534 00ac 3D       		.byte	61
 535 00ad 41       		.byte	65
 536 00ae 45       		.byte	69
 537 00af 48       		.byte	72
 538 00b0 4C       		.byte	76
 539 00b1 50       		.byte	80
 540 00b2 54       		.byte	84
 541 00b3 58       		.byte	88
 542 00b4 5C       		.byte	92
 543 00b5 60       		.byte	96
 544 00b6 64       		.byte	100
 545 00b7 68       		.byte	104
 546 00b8 6C       		.byte	108
 547 00b9 70       		.byte	112
ARM GAS  C:\Users\sepp2\AppData\Local\Temp\ccQCQWMk.s 			page 16


 548 00ba 75       		.byte	117
 549 00bb 79       		.byte	121
 550              		.type	WaveDAC8_3_wave2, %object
 551              		.size	WaveDAC8_3_wave2, 100
 552              	WaveDAC8_3_wave2:
 553 00bc 80       		.byte	-128
 554 00bd 80       		.byte	-128
 555 00be 80       		.byte	-128
 556 00bf 80       		.byte	-128
 557 00c0 80       		.byte	-128
 558 00c1 80       		.byte	-128
 559 00c2 80       		.byte	-128
 560 00c3 80       		.byte	-128
 561 00c4 80       		.byte	-128
 562 00c5 80       		.byte	-128
 563 00c6 80       		.byte	-128
 564 00c7 80       		.byte	-128
 565 00c8 80       		.byte	-128
 566 00c9 80       		.byte	-128
 567 00ca 80       		.byte	-128
 568 00cb 80       		.byte	-128
 569 00cc 80       		.byte	-128
 570 00cd 80       		.byte	-128
 571 00ce 80       		.byte	-128
 572 00cf 80       		.byte	-128
 573 00d0 80       		.byte	-128
 574 00d1 80       		.byte	-128
 575 00d2 80       		.byte	-128
 576 00d3 80       		.byte	-128
 577 00d4 80       		.byte	-128
 578 00d5 80       		.byte	-128
 579 00d6 80       		.byte	-128
 580 00d7 80       		.byte	-128
 581 00d8 80       		.byte	-128
 582 00d9 80       		.byte	-128
 583 00da 80       		.byte	-128
 584 00db 80       		.byte	-128
 585 00dc 80       		.byte	-128
 586 00dd 80       		.byte	-128
 587 00de 80       		.byte	-128
 588 00df 80       		.byte	-128
 589 00e0 80       		.byte	-128
 590 00e1 80       		.byte	-128
 591 00e2 80       		.byte	-128
 592 00e3 80       		.byte	-128
 593 00e4 80       		.byte	-128
 594 00e5 80       		.byte	-128
 595 00e6 80       		.byte	-128
 596 00e7 80       		.byte	-128
 597 00e8 80       		.byte	-128
 598 00e9 80       		.byte	-128
 599 00ea 80       		.byte	-128
 600 00eb 80       		.byte	-128
 601 00ec 80       		.byte	-128
 602 00ed 80       		.byte	-128
 603 00ee 80       		.byte	-128
 604 00ef 80       		.byte	-128
ARM GAS  C:\Users\sepp2\AppData\Local\Temp\ccQCQWMk.s 			page 17


 605 00f0 80       		.byte	-128
 606 00f1 80       		.byte	-128
 607 00f2 80       		.byte	-128
 608 00f3 80       		.byte	-128
 609 00f4 80       		.byte	-128
 610 00f5 80       		.byte	-128
 611 00f6 80       		.byte	-128
 612 00f7 80       		.byte	-128
 613 00f8 80       		.byte	-128
 614 00f9 80       		.byte	-128
 615 00fa 80       		.byte	-128
 616 00fb 80       		.byte	-128
 617 00fc 80       		.byte	-128
 618 00fd 80       		.byte	-128
 619 00fe 80       		.byte	-128
 620 00ff 80       		.byte	-128
 621 0100 80       		.byte	-128
 622 0101 80       		.byte	-128
 623 0102 80       		.byte	-128
 624 0103 80       		.byte	-128
 625 0104 80       		.byte	-128
 626 0105 80       		.byte	-128
 627 0106 80       		.byte	-128
 628 0107 80       		.byte	-128
 629 0108 80       		.byte	-128
 630 0109 80       		.byte	-128
 631 010a 80       		.byte	-128
 632 010b 80       		.byte	-128
 633 010c 80       		.byte	-128
 634 010d 80       		.byte	-128
 635 010e 80       		.byte	-128
 636 010f 80       		.byte	-128
 637 0110 80       		.byte	-128
 638 0111 80       		.byte	-128
 639 0112 80       		.byte	-128
 640 0113 80       		.byte	-128
 641 0114 80       		.byte	-128
 642 0115 80       		.byte	-128
 643 0116 80       		.byte	-128
 644 0117 80       		.byte	-128
 645 0118 80       		.byte	-128
 646 0119 80       		.byte	-128
 647 011a 80       		.byte	-128
 648 011b 80       		.byte	-128
 649 011c 80       		.byte	-128
 650 011d 80       		.byte	-128
 651 011e 80       		.byte	-128
 652 011f 80       		.byte	-128
 653              		.bss
 654              		.set	.LANCHOR0,. + 0
 655              		.type	WaveDAC8_3_Wave1Chan, %object
 656              		.size	WaveDAC8_3_Wave1Chan, 1
 657              	WaveDAC8_3_Wave1Chan:
 658 0000 00       		.space	1
 659              		.type	WaveDAC8_3_Wave2Chan, %object
 660              		.size	WaveDAC8_3_Wave2Chan, 1
 661              	WaveDAC8_3_Wave2Chan:
ARM GAS  C:\Users\sepp2\AppData\Local\Temp\ccQCQWMk.s 			page 18


 662 0001 00       		.space	1
 663              		.type	WaveDAC8_3_Wave1TD, %object
 664              		.size	WaveDAC8_3_Wave1TD, 1
 665              	WaveDAC8_3_Wave1TD:
 666 0002 00       		.space	1
 667              		.type	WaveDAC8_3_Wave2TD, %object
 668              		.size	WaveDAC8_3_Wave2TD, 1
 669              	WaveDAC8_3_Wave2TD:
 670 0003 00       		.space	1
 671              		.type	WaveDAC8_3_initVar, %object
 672              		.size	WaveDAC8_3_initVar, 1
 673              	WaveDAC8_3_initVar:
 674 0004 00       		.space	1
 675              		.text
 676              	.Letext0:
 677              		.file 2 "Generated_Source\\PSoC5\\cytypes.h"
 678              		.file 3 "Generated_Source\\PSoC5/WaveDAC8_3_VDAC8.h"
 679              		.file 4 "Generated_Source\\PSoC5/CYDMAC.H"
 680              		.file 5 "Generated_Source\\PSoC5/WaveDAC8_3_DacClk.h"
 681              		.file 6 "Generated_Source\\PSoC5/WaveDAC8_3_Wave1_DMA_dma.h"
 682              		.file 7 "Generated_Source\\PSoC5/WaveDAC8_3_Wave2_DMA_dma.h"