ARM GAS  C:\Users\sepp2\AppData\Local\Temp\cc8ACn6g.s 			page 1


   1              		.syntax unified
   2              		.cpu cortex-m3
   3              		.fpu softvfp
   4              		.eabi_attribute 20, 1
   5              		.eabi_attribute 21, 1
   6              		.eabi_attribute 23, 3
   7              		.eabi_attribute 24, 1
   8              		.eabi_attribute 25, 1
   9              		.eabi_attribute 26, 1
  10              		.eabi_attribute 30, 1
  11              		.eabi_attribute 34, 1
  12              		.eabi_attribute 18, 4
  13              		.thumb
  14              		.syntax unified
  15              		.file	"WaveDAC8_2.c"
  16              		.text
  17              	.Ltext0:
  18              		.cfi_sections	.debug_frame
  19              		.section	.text.WaveDAC8_2_Enable,"ax",%progbits
  20              		.align	2
  21              		.global	WaveDAC8_2_Enable
  22              		.thumb
  23              		.thumb_func
  24              		.type	WaveDAC8_2_Enable, %function
  25              	WaveDAC8_2_Enable:
  26              	.LFB1:
  27              		.file 1 "Generated_Source\\PSoC5\\WaveDAC8_2.c"
   1:Generated_Source\PSoC5/WaveDAC8_2.c **** /*******************************************************************************
   2:Generated_Source\PSoC5/WaveDAC8_2.c **** * File Name: WaveDAC8_2.c
   3:Generated_Source\PSoC5/WaveDAC8_2.c **** * Version 2.10
   4:Generated_Source\PSoC5/WaveDAC8_2.c **** *
   5:Generated_Source\PSoC5/WaveDAC8_2.c **** * Description:
   6:Generated_Source\PSoC5/WaveDAC8_2.c **** *  This file provides the source code for the 8-bit Waveform DAC 
   7:Generated_Source\PSoC5/WaveDAC8_2.c **** *  (WaveDAC8) Component.
   8:Generated_Source\PSoC5/WaveDAC8_2.c **** *
   9:Generated_Source\PSoC5/WaveDAC8_2.c **** ********************************************************************************
  10:Generated_Source\PSoC5/WaveDAC8_2.c **** * Copyright 2013, Cypress Semiconductor Corporation.  All rights reserved.
  11:Generated_Source\PSoC5/WaveDAC8_2.c **** * You may use this file only in accordance with the license, terms, conditions,
  12:Generated_Source\PSoC5/WaveDAC8_2.c **** * disclaimers, and limitations in the end user license agreement accompanying
  13:Generated_Source\PSoC5/WaveDAC8_2.c **** * the software package with which this file was provided.
  14:Generated_Source\PSoC5/WaveDAC8_2.c **** *******************************************************************************/
  15:Generated_Source\PSoC5/WaveDAC8_2.c **** 
  16:Generated_Source\PSoC5/WaveDAC8_2.c **** #include "WaveDAC8_2.h"
  17:Generated_Source\PSoC5/WaveDAC8_2.c **** 
  18:Generated_Source\PSoC5/WaveDAC8_2.c **** uint8  WaveDAC8_2_initVar = 0u;
  19:Generated_Source\PSoC5/WaveDAC8_2.c **** 
  20:Generated_Source\PSoC5/WaveDAC8_2.c **** const uint8 CYCODE WaveDAC8_2_wave1[WaveDAC8_2_WAVE1_LENGTH] = { 128u,129u,131u,133u,134u,136u,138u
  21:Generated_Source\PSoC5/WaveDAC8_2.c **** const uint8 CYCODE WaveDAC8_2_wave2[WaveDAC8_2_WAVE2_LENGTH] = { 128u,128u,128u,128u,128u,128u,128u
  22:Generated_Source\PSoC5/WaveDAC8_2.c **** 
  23:Generated_Source\PSoC5/WaveDAC8_2.c **** static uint8  WaveDAC8_2_Wave1Chan;
  24:Generated_Source\PSoC5/WaveDAC8_2.c **** static uint8  WaveDAC8_2_Wave2Chan;
  25:Generated_Source\PSoC5/WaveDAC8_2.c **** static uint8  WaveDAC8_2_Wave1TD;
  26:Generated_Source\PSoC5/WaveDAC8_2.c **** static uint8  WaveDAC8_2_Wave2TD;
  27:Generated_Source\PSoC5/WaveDAC8_2.c **** 
  28:Generated_Source\PSoC5/WaveDAC8_2.c **** 
  29:Generated_Source\PSoC5/WaveDAC8_2.c **** /*******************************************************************************
  30:Generated_Source\PSoC5/WaveDAC8_2.c **** * Function Name: WaveDAC8_2_Init
ARM GAS  C:\Users\sepp2\AppData\Local\Temp\cc8ACn6g.s 			page 2


  31:Generated_Source\PSoC5/WaveDAC8_2.c **** ********************************************************************************
  32:Generated_Source\PSoC5/WaveDAC8_2.c **** *
  33:Generated_Source\PSoC5/WaveDAC8_2.c **** * Summary:
  34:Generated_Source\PSoC5/WaveDAC8_2.c **** *  Initializes component with parameters set in the customizer.
  35:Generated_Source\PSoC5/WaveDAC8_2.c **** *
  36:Generated_Source\PSoC5/WaveDAC8_2.c **** * Parameters:  
  37:Generated_Source\PSoC5/WaveDAC8_2.c **** *  None
  38:Generated_Source\PSoC5/WaveDAC8_2.c **** *
  39:Generated_Source\PSoC5/WaveDAC8_2.c **** * Return: 
  40:Generated_Source\PSoC5/WaveDAC8_2.c **** *  None
  41:Generated_Source\PSoC5/WaveDAC8_2.c **** *
  42:Generated_Source\PSoC5/WaveDAC8_2.c **** *******************************************************************************/
  43:Generated_Source\PSoC5/WaveDAC8_2.c **** void WaveDAC8_2_Init(void) 
  44:Generated_Source\PSoC5/WaveDAC8_2.c **** {
  45:Generated_Source\PSoC5/WaveDAC8_2.c **** 	WaveDAC8_2_VDAC8_Init();
  46:Generated_Source\PSoC5/WaveDAC8_2.c **** 	WaveDAC8_2_VDAC8_SetSpeed(WaveDAC8_2_HIGHSPEED);
  47:Generated_Source\PSoC5/WaveDAC8_2.c **** 	WaveDAC8_2_VDAC8_SetRange(WaveDAC8_2_DAC_RANGE);
  48:Generated_Source\PSoC5/WaveDAC8_2.c **** 
  49:Generated_Source\PSoC5/WaveDAC8_2.c **** 	#if(WaveDAC8_2_DAC_MODE == WaveDAC8_2_CURRENT_MODE)
  50:Generated_Source\PSoC5/WaveDAC8_2.c **** 		WaveDAC8_2_IDAC8_SetPolarity(WaveDAC8_2_DAC_POL);
  51:Generated_Source\PSoC5/WaveDAC8_2.c **** 	#endif /* WaveDAC8_2_DAC_MODE == WaveDAC8_2_CURRENT_MODE */
  52:Generated_Source\PSoC5/WaveDAC8_2.c **** 
  53:Generated_Source\PSoC5/WaveDAC8_2.c **** 	#if(WaveDAC8_2_OUT_MODE == WaveDAC8_2_BUFFER_MODE)
  54:Generated_Source\PSoC5/WaveDAC8_2.c **** 	   WaveDAC8_2_BuffAmp_Init();
  55:Generated_Source\PSoC5/WaveDAC8_2.c **** 	#endif /* WaveDAC8_2_OUT_MODE == WaveDAC8_2_BUFFER_MODE */
  56:Generated_Source\PSoC5/WaveDAC8_2.c **** 
  57:Generated_Source\PSoC5/WaveDAC8_2.c **** 	/* Get the TD Number for the DMA channel 1 and 2   */
  58:Generated_Source\PSoC5/WaveDAC8_2.c **** 	WaveDAC8_2_Wave1TD = CyDmaTdAllocate();
  59:Generated_Source\PSoC5/WaveDAC8_2.c **** 	WaveDAC8_2_Wave2TD = CyDmaTdAllocate();
  60:Generated_Source\PSoC5/WaveDAC8_2.c **** 	
  61:Generated_Source\PSoC5/WaveDAC8_2.c **** 	/* Initialize waveform pointers  */
  62:Generated_Source\PSoC5/WaveDAC8_2.c **** 	WaveDAC8_2_Wave1Setup(WaveDAC8_2_wave1, WaveDAC8_2_WAVE1_LENGTH) ;
  63:Generated_Source\PSoC5/WaveDAC8_2.c **** 	WaveDAC8_2_Wave2Setup(WaveDAC8_2_wave2, WaveDAC8_2_WAVE2_LENGTH) ;
  64:Generated_Source\PSoC5/WaveDAC8_2.c **** 	
  65:Generated_Source\PSoC5/WaveDAC8_2.c **** 	/* Initialize the internal clock if one present  */
  66:Generated_Source\PSoC5/WaveDAC8_2.c **** 	#if defined(WaveDAC8_2_DacClk_PHASE)
  67:Generated_Source\PSoC5/WaveDAC8_2.c **** 	   WaveDAC8_2_DacClk_SetPhase(WaveDAC8_2_CLK_PHASE_0nS);
  68:Generated_Source\PSoC5/WaveDAC8_2.c **** 	#endif /* defined(WaveDAC8_2_DacClk_PHASE) */
  69:Generated_Source\PSoC5/WaveDAC8_2.c **** }
  70:Generated_Source\PSoC5/WaveDAC8_2.c **** 
  71:Generated_Source\PSoC5/WaveDAC8_2.c **** 
  72:Generated_Source\PSoC5/WaveDAC8_2.c **** /*******************************************************************************
  73:Generated_Source\PSoC5/WaveDAC8_2.c **** * Function Name: WaveDAC8_2_Enable
  74:Generated_Source\PSoC5/WaveDAC8_2.c **** ********************************************************************************
  75:Generated_Source\PSoC5/WaveDAC8_2.c **** *  
  76:Generated_Source\PSoC5/WaveDAC8_2.c **** * Summary: 
  77:Generated_Source\PSoC5/WaveDAC8_2.c **** *  Enables the DAC block and DMA operation.
  78:Generated_Source\PSoC5/WaveDAC8_2.c **** *
  79:Generated_Source\PSoC5/WaveDAC8_2.c **** * Parameters:  
  80:Generated_Source\PSoC5/WaveDAC8_2.c **** *  None
  81:Generated_Source\PSoC5/WaveDAC8_2.c **** *
  82:Generated_Source\PSoC5/WaveDAC8_2.c **** * Return: 
  83:Generated_Source\PSoC5/WaveDAC8_2.c **** *  None
  84:Generated_Source\PSoC5/WaveDAC8_2.c **** *
  85:Generated_Source\PSoC5/WaveDAC8_2.c **** *******************************************************************************/
  86:Generated_Source\PSoC5/WaveDAC8_2.c **** void WaveDAC8_2_Enable(void) 
  87:Generated_Source\PSoC5/WaveDAC8_2.c **** {
ARM GAS  C:\Users\sepp2\AppData\Local\Temp\cc8ACn6g.s 			page 3


  28              		.loc 1 87 0
  29              		.cfi_startproc
  30              		@ args = 0, pretend = 0, frame = 0
  31              		@ frame_needed = 0, uses_anonymous_args = 0
  32 0000 10B5     		push	{r4, lr}
  33              		.cfi_def_cfa_offset 8
  34              		.cfi_offset 4, -8
  35              		.cfi_offset 14, -4
  88:Generated_Source\PSoC5/WaveDAC8_2.c **** 	WaveDAC8_2_VDAC8_Enable();
  36              		.loc 1 88 0
  37 0002 FFF7FEFF 		bl	WaveDAC8_2_VDAC8_Enable
  38              	.LVL0:
  89:Generated_Source\PSoC5/WaveDAC8_2.c **** 
  90:Generated_Source\PSoC5/WaveDAC8_2.c **** 	#if(WaveDAC8_2_OUT_MODE == WaveDAC8_2_BUFFER_MODE)
  91:Generated_Source\PSoC5/WaveDAC8_2.c **** 	   WaveDAC8_2_BuffAmp_Enable();
  92:Generated_Source\PSoC5/WaveDAC8_2.c **** 	#endif /* WaveDAC8_2_OUT_MODE == WaveDAC8_2_BUFFER_MODE */
  93:Generated_Source\PSoC5/WaveDAC8_2.c **** 
  94:Generated_Source\PSoC5/WaveDAC8_2.c **** 	/* 
  95:Generated_Source\PSoC5/WaveDAC8_2.c **** 	* Enable the channel. It is configured to remember the TD value so that
  96:Generated_Source\PSoC5/WaveDAC8_2.c **** 	* it can be restored from the place where it has been stopped.
  97:Generated_Source\PSoC5/WaveDAC8_2.c **** 	*/
  98:Generated_Source\PSoC5/WaveDAC8_2.c **** 	(void)CyDmaChEnable(WaveDAC8_2_Wave1Chan, 1u);
  39              		.loc 1 98 0
  40 0006 074C     		ldr	r4, .L3
  41 0008 0121     		movs	r1, #1
  42 000a 2078     		ldrb	r0, [r4]	@ zero_extendqisi2
  43 000c FFF7FEFF 		bl	CyDmaChEnable
  44              	.LVL1:
  99:Generated_Source\PSoC5/WaveDAC8_2.c **** 	(void)CyDmaChEnable(WaveDAC8_2_Wave2Chan, 1u);
  45              		.loc 1 99 0
  46 0010 0121     		movs	r1, #1
  47 0012 6078     		ldrb	r0, [r4, #1]	@ zero_extendqisi2
  48 0014 FFF7FEFF 		bl	CyDmaChEnable
  49              	.LVL2:
 100:Generated_Source\PSoC5/WaveDAC8_2.c **** 	
 101:Generated_Source\PSoC5/WaveDAC8_2.c **** 	/* set the initial value */
 102:Generated_Source\PSoC5/WaveDAC8_2.c **** 	WaveDAC8_2_SetValue(0u);
  50              		.loc 1 102 0
  51 0018 0020     		movs	r0, #0
  52 001a FFF7FEFF 		bl	WaveDAC8_2_VDAC8_SetValue
  53              	.LVL3:
 103:Generated_Source\PSoC5/WaveDAC8_2.c **** 	
 104:Generated_Source\PSoC5/WaveDAC8_2.c **** 	#if(WaveDAC8_2_CLOCK_SRC == WaveDAC8_2_CLOCK_INT)  	
 105:Generated_Source\PSoC5/WaveDAC8_2.c **** 	   WaveDAC8_2_DacClk_Start();
  54              		.loc 1 105 0
  55 001e FFF7FEFF 		bl	WaveDAC8_2_DacClk_Start
  56              	.LVL4:
  57 0022 10BD     		pop	{r4, pc}
  58              	.L4:
  59              		.align	2
  60              	.L3:
  61 0024 00000000 		.word	.LANCHOR0
  62              		.cfi_endproc
  63              	.LFE1:
  64              		.size	WaveDAC8_2_Enable, .-WaveDAC8_2_Enable
  65              		.section	.text.WaveDAC8_2_Stop,"ax",%progbits
  66              		.align	2
ARM GAS  C:\Users\sepp2\AppData\Local\Temp\cc8ACn6g.s 			page 4


  67              		.global	WaveDAC8_2_Stop
  68              		.thumb
  69              		.thumb_func
  70              		.type	WaveDAC8_2_Stop, %function
  71              	WaveDAC8_2_Stop:
  72              	.LFB4:
 106:Generated_Source\PSoC5/WaveDAC8_2.c **** 	#endif /* WaveDAC8_2_CLOCK_SRC == WaveDAC8_2_CLOCK_INT */
 107:Generated_Source\PSoC5/WaveDAC8_2.c **** }
 108:Generated_Source\PSoC5/WaveDAC8_2.c **** 
 109:Generated_Source\PSoC5/WaveDAC8_2.c **** 
 110:Generated_Source\PSoC5/WaveDAC8_2.c **** /*******************************************************************************
 111:Generated_Source\PSoC5/WaveDAC8_2.c **** * Function Name: WaveDAC8_2_Start
 112:Generated_Source\PSoC5/WaveDAC8_2.c **** ********************************************************************************
 113:Generated_Source\PSoC5/WaveDAC8_2.c **** *
 114:Generated_Source\PSoC5/WaveDAC8_2.c **** * Summary:
 115:Generated_Source\PSoC5/WaveDAC8_2.c **** *  The start function initializes the voltage DAC with the default values, 
 116:Generated_Source\PSoC5/WaveDAC8_2.c **** *  and sets the power to the given level.  A power level of 0, is the same as 
 117:Generated_Source\PSoC5/WaveDAC8_2.c **** *  executing the stop function.
 118:Generated_Source\PSoC5/WaveDAC8_2.c **** *
 119:Generated_Source\PSoC5/WaveDAC8_2.c **** * Parameters:  
 120:Generated_Source\PSoC5/WaveDAC8_2.c **** *  None
 121:Generated_Source\PSoC5/WaveDAC8_2.c **** *
 122:Generated_Source\PSoC5/WaveDAC8_2.c **** * Return: 
 123:Generated_Source\PSoC5/WaveDAC8_2.c **** *  None
 124:Generated_Source\PSoC5/WaveDAC8_2.c **** *
 125:Generated_Source\PSoC5/WaveDAC8_2.c **** * Reentrant:
 126:Generated_Source\PSoC5/WaveDAC8_2.c **** *  No
 127:Generated_Source\PSoC5/WaveDAC8_2.c **** *
 128:Generated_Source\PSoC5/WaveDAC8_2.c **** *******************************************************************************/
 129:Generated_Source\PSoC5/WaveDAC8_2.c **** void WaveDAC8_2_Start(void) 
 130:Generated_Source\PSoC5/WaveDAC8_2.c **** {
 131:Generated_Source\PSoC5/WaveDAC8_2.c **** 	/* If not Initialized then initialize all required hardware and software */
 132:Generated_Source\PSoC5/WaveDAC8_2.c **** 	if(WaveDAC8_2_initVar == 0u)
 133:Generated_Source\PSoC5/WaveDAC8_2.c **** 	{
 134:Generated_Source\PSoC5/WaveDAC8_2.c **** 		WaveDAC8_2_Init();
 135:Generated_Source\PSoC5/WaveDAC8_2.c **** 		WaveDAC8_2_initVar = 1u;
 136:Generated_Source\PSoC5/WaveDAC8_2.c **** 	}
 137:Generated_Source\PSoC5/WaveDAC8_2.c **** 	
 138:Generated_Source\PSoC5/WaveDAC8_2.c **** 	WaveDAC8_2_Enable();
 139:Generated_Source\PSoC5/WaveDAC8_2.c **** }
 140:Generated_Source\PSoC5/WaveDAC8_2.c **** 
 141:Generated_Source\PSoC5/WaveDAC8_2.c **** 
 142:Generated_Source\PSoC5/WaveDAC8_2.c **** /*******************************************************************************
 143:Generated_Source\PSoC5/WaveDAC8_2.c **** * Function Name: WaveDAC8_2_StartEx
 144:Generated_Source\PSoC5/WaveDAC8_2.c **** ********************************************************************************
 145:Generated_Source\PSoC5/WaveDAC8_2.c **** *
 146:Generated_Source\PSoC5/WaveDAC8_2.c **** * Summary:
 147:Generated_Source\PSoC5/WaveDAC8_2.c **** *  The StartEx function sets pointers and sizes for both waveforms
 148:Generated_Source\PSoC5/WaveDAC8_2.c **** *  and then starts the component.
 149:Generated_Source\PSoC5/WaveDAC8_2.c **** *
 150:Generated_Source\PSoC5/WaveDAC8_2.c **** * Parameters:  
 151:Generated_Source\PSoC5/WaveDAC8_2.c **** *   uint8 * wavePtr1:     Pointer to the waveform 1 array.
 152:Generated_Source\PSoC5/WaveDAC8_2.c **** *   uint16  sampleSize1:  The amount of samples in the waveform 1.
 153:Generated_Source\PSoC5/WaveDAC8_2.c **** *   uint8 * wavePtr2:     Pointer to the waveform 2 array.
 154:Generated_Source\PSoC5/WaveDAC8_2.c **** *   uint16  sampleSize2:  The amount of samples in the waveform 2.
 155:Generated_Source\PSoC5/WaveDAC8_2.c **** *
 156:Generated_Source\PSoC5/WaveDAC8_2.c **** * Return: 
ARM GAS  C:\Users\sepp2\AppData\Local\Temp\cc8ACn6g.s 			page 5


 157:Generated_Source\PSoC5/WaveDAC8_2.c **** *  None
 158:Generated_Source\PSoC5/WaveDAC8_2.c **** *
 159:Generated_Source\PSoC5/WaveDAC8_2.c **** * Reentrant:
 160:Generated_Source\PSoC5/WaveDAC8_2.c **** *  No
 161:Generated_Source\PSoC5/WaveDAC8_2.c **** *
 162:Generated_Source\PSoC5/WaveDAC8_2.c **** *******************************************************************************/
 163:Generated_Source\PSoC5/WaveDAC8_2.c **** void WaveDAC8_2_StartEx(const uint8 * wavePtr1, uint16 sampleSize1, const uint8 * wavePtr2, uint16 
 164:Generated_Source\PSoC5/WaveDAC8_2.c **** 
 165:Generated_Source\PSoC5/WaveDAC8_2.c **** {
 166:Generated_Source\PSoC5/WaveDAC8_2.c **** 	WaveDAC8_2_Wave1Setup(wavePtr1, sampleSize1);
 167:Generated_Source\PSoC5/WaveDAC8_2.c **** 	WaveDAC8_2_Wave2Setup(wavePtr2, sampleSize2);
 168:Generated_Source\PSoC5/WaveDAC8_2.c **** 	WaveDAC8_2_Start();
 169:Generated_Source\PSoC5/WaveDAC8_2.c **** }
 170:Generated_Source\PSoC5/WaveDAC8_2.c **** 
 171:Generated_Source\PSoC5/WaveDAC8_2.c **** 
 172:Generated_Source\PSoC5/WaveDAC8_2.c **** /*******************************************************************************
 173:Generated_Source\PSoC5/WaveDAC8_2.c **** * Function Name: WaveDAC8_2_Stop
 174:Generated_Source\PSoC5/WaveDAC8_2.c **** ********************************************************************************
 175:Generated_Source\PSoC5/WaveDAC8_2.c **** *
 176:Generated_Source\PSoC5/WaveDAC8_2.c **** * Summary:
 177:Generated_Source\PSoC5/WaveDAC8_2.c **** *  Stops the clock (if internal), disables the DMA channels
 178:Generated_Source\PSoC5/WaveDAC8_2.c **** *  and powers down the DAC.
 179:Generated_Source\PSoC5/WaveDAC8_2.c **** *
 180:Generated_Source\PSoC5/WaveDAC8_2.c **** * Parameters:  
 181:Generated_Source\PSoC5/WaveDAC8_2.c **** *  None  
 182:Generated_Source\PSoC5/WaveDAC8_2.c **** *
 183:Generated_Source\PSoC5/WaveDAC8_2.c **** * Return: 
 184:Generated_Source\PSoC5/WaveDAC8_2.c **** *  None
 185:Generated_Source\PSoC5/WaveDAC8_2.c **** *
 186:Generated_Source\PSoC5/WaveDAC8_2.c **** *******************************************************************************/
 187:Generated_Source\PSoC5/WaveDAC8_2.c **** void WaveDAC8_2_Stop(void) 
 188:Generated_Source\PSoC5/WaveDAC8_2.c **** {
  73              		.loc 1 188 0
  74              		.cfi_startproc
  75              		@ args = 0, pretend = 0, frame = 0
  76              		@ frame_needed = 0, uses_anonymous_args = 0
  77 0000 10B5     		push	{r4, lr}
  78              		.cfi_def_cfa_offset 8
  79              		.cfi_offset 4, -8
  80              		.cfi_offset 14, -4
 189:Generated_Source\PSoC5/WaveDAC8_2.c **** 	/* Turn off internal clock, if one present */
 190:Generated_Source\PSoC5/WaveDAC8_2.c **** 	#if(WaveDAC8_2_CLOCK_SRC == WaveDAC8_2_CLOCK_INT)  	
 191:Generated_Source\PSoC5/WaveDAC8_2.c **** 	   WaveDAC8_2_DacClk_Stop();
  81              		.loc 1 191 0
  82 0002 FFF7FEFF 		bl	WaveDAC8_2_DacClk_Stop
  83              	.LVL5:
 192:Generated_Source\PSoC5/WaveDAC8_2.c **** 	#endif /* WaveDAC8_2_CLOCK_SRC == WaveDAC8_2_CLOCK_INT */
 193:Generated_Source\PSoC5/WaveDAC8_2.c **** 	
 194:Generated_Source\PSoC5/WaveDAC8_2.c **** 	/* Disble DMA channels */
 195:Generated_Source\PSoC5/WaveDAC8_2.c **** 	(void)CyDmaChDisable(WaveDAC8_2_Wave1Chan);
  84              		.loc 1 195 0
  85 0006 054C     		ldr	r4, .L7
  86 0008 2078     		ldrb	r0, [r4]	@ zero_extendqisi2
  87 000a FFF7FEFF 		bl	CyDmaChDisable
  88              	.LVL6:
 196:Generated_Source\PSoC5/WaveDAC8_2.c **** 	(void)CyDmaChDisable(WaveDAC8_2_Wave2Chan);
  89              		.loc 1 196 0
ARM GAS  C:\Users\sepp2\AppData\Local\Temp\cc8ACn6g.s 			page 6


  90 000e 6078     		ldrb	r0, [r4, #1]	@ zero_extendqisi2
  91 0010 FFF7FEFF 		bl	CyDmaChDisable
  92              	.LVL7:
 197:Generated_Source\PSoC5/WaveDAC8_2.c **** 
 198:Generated_Source\PSoC5/WaveDAC8_2.c **** 	/* Disable power to DAC */
 199:Generated_Source\PSoC5/WaveDAC8_2.c **** 	WaveDAC8_2_VDAC8_Stop();
  93              		.loc 1 199 0
  94 0014 FFF7FEFF 		bl	WaveDAC8_2_VDAC8_Stop
  95              	.LVL8:
  96 0018 10BD     		pop	{r4, pc}
  97              	.L8:
  98 001a 00BF     		.align	2
  99              	.L7:
 100 001c 00000000 		.word	.LANCHOR0
 101              		.cfi_endproc
 102              	.LFE4:
 103              		.size	WaveDAC8_2_Stop, .-WaveDAC8_2_Stop
 104              		.section	.text.WaveDAC8_2_Wave1Setup,"ax",%progbits
 105              		.align	2
 106              		.global	WaveDAC8_2_Wave1Setup
 107              		.thumb
 108              		.thumb_func
 109              		.type	WaveDAC8_2_Wave1Setup, %function
 110              	WaveDAC8_2_Wave1Setup:
 111              	.LFB5:
 200:Generated_Source\PSoC5/WaveDAC8_2.c **** }
 201:Generated_Source\PSoC5/WaveDAC8_2.c **** 
 202:Generated_Source\PSoC5/WaveDAC8_2.c **** 
 203:Generated_Source\PSoC5/WaveDAC8_2.c **** /*******************************************************************************
 204:Generated_Source\PSoC5/WaveDAC8_2.c **** * Function Name: WaveDAC8_2_Wave1Setup
 205:Generated_Source\PSoC5/WaveDAC8_2.c **** ********************************************************************************
 206:Generated_Source\PSoC5/WaveDAC8_2.c **** *
 207:Generated_Source\PSoC5/WaveDAC8_2.c **** * Summary:
 208:Generated_Source\PSoC5/WaveDAC8_2.c **** *  Sets pointer and size for waveform 1.                                    
 209:Generated_Source\PSoC5/WaveDAC8_2.c **** *
 210:Generated_Source\PSoC5/WaveDAC8_2.c **** * Parameters:  
 211:Generated_Source\PSoC5/WaveDAC8_2.c **** *  uint8 * WavePtr:     Pointer to the waveform array.
 212:Generated_Source\PSoC5/WaveDAC8_2.c **** *  uint16  SampleSize:  The amount of samples in the waveform.
 213:Generated_Source\PSoC5/WaveDAC8_2.c **** *
 214:Generated_Source\PSoC5/WaveDAC8_2.c **** * Return: 
 215:Generated_Source\PSoC5/WaveDAC8_2.c **** *  None 
 216:Generated_Source\PSoC5/WaveDAC8_2.c **** *
 217:Generated_Source\PSoC5/WaveDAC8_2.c **** *******************************************************************************/
 218:Generated_Source\PSoC5/WaveDAC8_2.c **** void WaveDAC8_2_Wave1Setup(const uint8 * wavePtr, uint16 sampleSize)
 219:Generated_Source\PSoC5/WaveDAC8_2.c **** 
 220:Generated_Source\PSoC5/WaveDAC8_2.c **** {
 112              		.loc 1 220 0
 113              		.cfi_startproc
 114              		@ args = 0, pretend = 0, frame = 0
 115              		@ frame_needed = 0, uses_anonymous_args = 0
 116              	.LVL9:
 117 0000 70B5     		push	{r4, r5, r6, lr}
 118              		.cfi_def_cfa_offset 16
 119              		.cfi_offset 4, -16
 120              		.cfi_offset 5, -12
 121              		.cfi_offset 6, -8
 122              		.cfi_offset 14, -4
ARM GAS  C:\Users\sepp2\AppData\Local\Temp\cc8ACn6g.s 			page 7


 123 0002 0546     		mov	r5, r0
 124 0004 0E46     		mov	r6, r1
 221:Generated_Source\PSoC5/WaveDAC8_2.c **** 	#if (CY_PSOC3)
 222:Generated_Source\PSoC5/WaveDAC8_2.c **** 		uint16 memoryType; /* determining the source memory type */
 223:Generated_Source\PSoC5/WaveDAC8_2.c **** 		memoryType = (WaveDAC8_2_HI16FLASHPTR == HI16(wavePtr)) ? HI16(CYDEV_FLS_BASE) : HI16(CYDEV_SRAM_
 224:Generated_Source\PSoC5/WaveDAC8_2.c **** 		
 225:Generated_Source\PSoC5/WaveDAC8_2.c **** 		WaveDAC8_2_Wave1Chan = WaveDAC8_2_Wave1_DMA_DmaInitialize(
 226:Generated_Source\PSoC5/WaveDAC8_2.c **** 		WaveDAC8_2_Wave1_DMA_BYTES_PER_BURST, WaveDAC8_2_Wave1_DMA_REQUEST_PER_BURST,
 227:Generated_Source\PSoC5/WaveDAC8_2.c **** 		memoryType, HI16(CYDEV_PERIPH_BASE));
 228:Generated_Source\PSoC5/WaveDAC8_2.c **** 	#else /* PSoC 5 */
 229:Generated_Source\PSoC5/WaveDAC8_2.c **** 		WaveDAC8_2_Wave1Chan = WaveDAC8_2_Wave1_DMA_DmaInitialize(
 125              		.loc 1 229 0
 126 0006 4FF48043 		mov	r3, #16384
 127 000a 020C     		lsrs	r2, r0, #16
 128 000c 0121     		movs	r1, #1
 129              	.LVL10:
 130 000e 0846     		mov	r0, r1
 131              	.LVL11:
 132 0010 FFF7FEFF 		bl	WaveDAC8_2_Wave1_DMA_DmaInitialize
 133              	.LVL12:
 134 0014 094C     		ldr	r4, .L11
 135 0016 2070     		strb	r0, [r4]
 230:Generated_Source\PSoC5/WaveDAC8_2.c **** 		WaveDAC8_2_Wave1_DMA_BYTES_PER_BURST, WaveDAC8_2_Wave1_DMA_REQUEST_PER_BURST,
 231:Generated_Source\PSoC5/WaveDAC8_2.c **** 		HI16(wavePtr), HI16(WaveDAC8_2_DAC8__D));
 232:Generated_Source\PSoC5/WaveDAC8_2.c **** 	#endif /* CY_PSOC3 */
 233:Generated_Source\PSoC5/WaveDAC8_2.c **** 	
 234:Generated_Source\PSoC5/WaveDAC8_2.c **** 	/*
 235:Generated_Source\PSoC5/WaveDAC8_2.c **** 	* TD is looping on itself. 
 236:Generated_Source\PSoC5/WaveDAC8_2.c ****     * Increment the source address, but not the destination address. 
 237:Generated_Source\PSoC5/WaveDAC8_2.c **** 	*/
 238:Generated_Source\PSoC5/WaveDAC8_2.c **** 	(void)CyDmaTdSetConfiguration(WaveDAC8_2_Wave1TD, sampleSize, WaveDAC8_2_Wave1TD, 
 136              		.loc 1 238 0
 137 0018 A078     		ldrb	r0, [r4, #2]	@ zero_extendqisi2
 138 001a 0123     		movs	r3, #1
 139 001c 0246     		mov	r2, r0
 140 001e 3146     		mov	r1, r6
 141 0020 FFF7FEFF 		bl	CyDmaTdSetConfiguration
 142              	.LVL13:
 239:Generated_Source\PSoC5/WaveDAC8_2.c ****                                     (uint8)CY_DMA_TD_INC_SRC_ADR | (uint8)WaveDAC8_2_Wave1_DMA__TD_
 240:Generated_Source\PSoC5/WaveDAC8_2.c **** 	
 241:Generated_Source\PSoC5/WaveDAC8_2.c **** 	/* Set the TD source and destination address */
 242:Generated_Source\PSoC5/WaveDAC8_2.c **** 	(void)CyDmaTdSetAddress(WaveDAC8_2_Wave1TD, LO16((uint32)wavePtr), LO16(WaveDAC8_2_DAC8__D));
 143              		.loc 1 242 0
 144 0024 45F68232 		movw	r2, #23426
 145 0028 A9B2     		uxth	r1, r5
 146 002a A078     		ldrb	r0, [r4, #2]	@ zero_extendqisi2
 147 002c FFF7FEFF 		bl	CyDmaTdSetAddress
 148              	.LVL14:
 243:Generated_Source\PSoC5/WaveDAC8_2.c **** 	
 244:Generated_Source\PSoC5/WaveDAC8_2.c **** 	/* Associate the TD with the channel */
 245:Generated_Source\PSoC5/WaveDAC8_2.c **** 	(void)CyDmaChSetInitialTd(WaveDAC8_2_Wave1Chan, WaveDAC8_2_Wave1TD);
 149              		.loc 1 245 0
 150 0030 A178     		ldrb	r1, [r4, #2]	@ zero_extendqisi2
 151 0032 2078     		ldrb	r0, [r4]	@ zero_extendqisi2
 152 0034 FFF7FEFF 		bl	CyDmaChSetInitialTd
 153              	.LVL15:
 154 0038 70BD     		pop	{r4, r5, r6, pc}
ARM GAS  C:\Users\sepp2\AppData\Local\Temp\cc8ACn6g.s 			page 8


 155              	.LVL16:
 156              	.L12:
 157 003a 00BF     		.align	2
 158              	.L11:
 159 003c 00000000 		.word	.LANCHOR0
 160              		.cfi_endproc
 161              	.LFE5:
 162              		.size	WaveDAC8_2_Wave1Setup, .-WaveDAC8_2_Wave1Setup
 163              		.section	.text.WaveDAC8_2_Wave2Setup,"ax",%progbits
 164              		.align	2
 165              		.global	WaveDAC8_2_Wave2Setup
 166              		.thumb
 167              		.thumb_func
 168              		.type	WaveDAC8_2_Wave2Setup, %function
 169              	WaveDAC8_2_Wave2Setup:
 170              	.LFB6:
 246:Generated_Source\PSoC5/WaveDAC8_2.c **** }
 247:Generated_Source\PSoC5/WaveDAC8_2.c **** 
 248:Generated_Source\PSoC5/WaveDAC8_2.c **** 
 249:Generated_Source\PSoC5/WaveDAC8_2.c **** /*******************************************************************************
 250:Generated_Source\PSoC5/WaveDAC8_2.c **** * Function Name: WaveDAC8_2_Wave2Setup
 251:Generated_Source\PSoC5/WaveDAC8_2.c **** ********************************************************************************
 252:Generated_Source\PSoC5/WaveDAC8_2.c **** *
 253:Generated_Source\PSoC5/WaveDAC8_2.c **** * Summary:
 254:Generated_Source\PSoC5/WaveDAC8_2.c **** *  Sets pointer and size for waveform 2.                                    
 255:Generated_Source\PSoC5/WaveDAC8_2.c **** *
 256:Generated_Source\PSoC5/WaveDAC8_2.c **** * Parameters:  
 257:Generated_Source\PSoC5/WaveDAC8_2.c **** *  uint8 * WavePtr:     Pointer to the waveform array.
 258:Generated_Source\PSoC5/WaveDAC8_2.c **** *  uint16  SampleSize:  The amount of samples in the waveform.
 259:Generated_Source\PSoC5/WaveDAC8_2.c **** *
 260:Generated_Source\PSoC5/WaveDAC8_2.c **** * Return: 
 261:Generated_Source\PSoC5/WaveDAC8_2.c **** *  None
 262:Generated_Source\PSoC5/WaveDAC8_2.c **** *
 263:Generated_Source\PSoC5/WaveDAC8_2.c **** *******************************************************************************/
 264:Generated_Source\PSoC5/WaveDAC8_2.c **** void WaveDAC8_2_Wave2Setup(const uint8 * wavePtr, uint16 sampleSize)
 265:Generated_Source\PSoC5/WaveDAC8_2.c ****  
 266:Generated_Source\PSoC5/WaveDAC8_2.c **** {
 171              		.loc 1 266 0
 172              		.cfi_startproc
 173              		@ args = 0, pretend = 0, frame = 0
 174              		@ frame_needed = 0, uses_anonymous_args = 0
 175              	.LVL17:
 176 0000 70B5     		push	{r4, r5, r6, lr}
 177              		.cfi_def_cfa_offset 16
 178              		.cfi_offset 4, -16
 179              		.cfi_offset 5, -12
 180              		.cfi_offset 6, -8
 181              		.cfi_offset 14, -4
 182 0002 0546     		mov	r5, r0
 183 0004 0E46     		mov	r6, r1
 267:Generated_Source\PSoC5/WaveDAC8_2.c **** 	#if (CY_PSOC3)
 268:Generated_Source\PSoC5/WaveDAC8_2.c **** 		uint16 memoryType; /* determining the source memory type */
 269:Generated_Source\PSoC5/WaveDAC8_2.c **** 		memoryType = (WaveDAC8_2_HI16FLASHPTR == HI16(wavePtr)) ? HI16(CYDEV_FLS_BASE) : HI16(CYDEV_SRAM_
 270:Generated_Source\PSoC5/WaveDAC8_2.c **** 			
 271:Generated_Source\PSoC5/WaveDAC8_2.c **** 		WaveDAC8_2_Wave2Chan = WaveDAC8_2_Wave2_DMA_DmaInitialize(
 272:Generated_Source\PSoC5/WaveDAC8_2.c **** 		WaveDAC8_2_Wave2_DMA_BYTES_PER_BURST, WaveDAC8_2_Wave2_DMA_REQUEST_PER_BURST,
 273:Generated_Source\PSoC5/WaveDAC8_2.c **** 		memoryType, HI16(CYDEV_PERIPH_BASE));
ARM GAS  C:\Users\sepp2\AppData\Local\Temp\cc8ACn6g.s 			page 9


 274:Generated_Source\PSoC5/WaveDAC8_2.c **** 	#else /* PSoC 5 */
 275:Generated_Source\PSoC5/WaveDAC8_2.c **** 		WaveDAC8_2_Wave2Chan = WaveDAC8_2_Wave2_DMA_DmaInitialize(
 184              		.loc 1 275 0
 185 0006 4FF48043 		mov	r3, #16384
 186 000a 020C     		lsrs	r2, r0, #16
 187 000c 0121     		movs	r1, #1
 188              	.LVL18:
 189 000e 0846     		mov	r0, r1
 190              	.LVL19:
 191 0010 FFF7FEFF 		bl	WaveDAC8_2_Wave2_DMA_DmaInitialize
 192              	.LVL20:
 193 0014 094C     		ldr	r4, .L15
 194 0016 6070     		strb	r0, [r4, #1]
 276:Generated_Source\PSoC5/WaveDAC8_2.c **** 		WaveDAC8_2_Wave2_DMA_BYTES_PER_BURST, WaveDAC8_2_Wave2_DMA_REQUEST_PER_BURST,
 277:Generated_Source\PSoC5/WaveDAC8_2.c **** 		HI16(wavePtr), HI16(WaveDAC8_2_DAC8__D));
 278:Generated_Source\PSoC5/WaveDAC8_2.c **** 	#endif /* CY_PSOC3 */
 279:Generated_Source\PSoC5/WaveDAC8_2.c **** 	
 280:Generated_Source\PSoC5/WaveDAC8_2.c **** 	/*
 281:Generated_Source\PSoC5/WaveDAC8_2.c **** 	* TD is looping on itself. 
 282:Generated_Source\PSoC5/WaveDAC8_2.c **** 	* Increment the source address, but not the destination address. 
 283:Generated_Source\PSoC5/WaveDAC8_2.c **** 	*/
 284:Generated_Source\PSoC5/WaveDAC8_2.c **** 	(void)CyDmaTdSetConfiguration(WaveDAC8_2_Wave2TD, sampleSize, WaveDAC8_2_Wave2TD, 
 195              		.loc 1 284 0
 196 0018 E078     		ldrb	r0, [r4, #3]	@ zero_extendqisi2
 197 001a 0123     		movs	r3, #1
 198 001c 0246     		mov	r2, r0
 199 001e 3146     		mov	r1, r6
 200 0020 FFF7FEFF 		bl	CyDmaTdSetConfiguration
 201              	.LVL21:
 285:Generated_Source\PSoC5/WaveDAC8_2.c ****                                     (uint8)CY_DMA_TD_INC_SRC_ADR | (uint8)WaveDAC8_2_Wave2_DMA__TD_
 286:Generated_Source\PSoC5/WaveDAC8_2.c **** 	
 287:Generated_Source\PSoC5/WaveDAC8_2.c **** 	/* Set the TD source and destination address */
 288:Generated_Source\PSoC5/WaveDAC8_2.c **** 	(void)CyDmaTdSetAddress(WaveDAC8_2_Wave2TD, LO16((uint32)wavePtr), LO16(WaveDAC8_2_DAC8__D));
 202              		.loc 1 288 0
 203 0024 45F68232 		movw	r2, #23426
 204 0028 A9B2     		uxth	r1, r5
 205 002a E078     		ldrb	r0, [r4, #3]	@ zero_extendqisi2
 206 002c FFF7FEFF 		bl	CyDmaTdSetAddress
 207              	.LVL22:
 289:Generated_Source\PSoC5/WaveDAC8_2.c **** 	
 290:Generated_Source\PSoC5/WaveDAC8_2.c **** 	/* Associate the TD with the channel */
 291:Generated_Source\PSoC5/WaveDAC8_2.c **** 	(void)CyDmaChSetInitialTd(WaveDAC8_2_Wave2Chan, WaveDAC8_2_Wave2TD);
 208              		.loc 1 291 0
 209 0030 E178     		ldrb	r1, [r4, #3]	@ zero_extendqisi2
 210 0032 6078     		ldrb	r0, [r4, #1]	@ zero_extendqisi2
 211 0034 FFF7FEFF 		bl	CyDmaChSetInitialTd
 212              	.LVL23:
 213 0038 70BD     		pop	{r4, r5, r6, pc}
 214              	.LVL24:
 215              	.L16:
 216 003a 00BF     		.align	2
 217              	.L15:
 218 003c 00000000 		.word	.LANCHOR0
 219              		.cfi_endproc
 220              	.LFE6:
 221              		.size	WaveDAC8_2_Wave2Setup, .-WaveDAC8_2_Wave2Setup
 222              		.section	.text.WaveDAC8_2_Init,"ax",%progbits
ARM GAS  C:\Users\sepp2\AppData\Local\Temp\cc8ACn6g.s 			page 10


 223              		.align	2
 224              		.global	WaveDAC8_2_Init
 225              		.thumb
 226              		.thumb_func
 227              		.type	WaveDAC8_2_Init, %function
 228              	WaveDAC8_2_Init:
 229              	.LFB0:
  44:Generated_Source\PSoC5/WaveDAC8_2.c **** 	WaveDAC8_2_VDAC8_Init();
 230              		.loc 1 44 0
 231              		.cfi_startproc
 232              		@ args = 0, pretend = 0, frame = 0
 233              		@ frame_needed = 0, uses_anonymous_args = 0
 234 0000 10B5     		push	{r4, lr}
 235              		.cfi_def_cfa_offset 8
 236              		.cfi_offset 4, -8
 237              		.cfi_offset 14, -4
  45:Generated_Source\PSoC5/WaveDAC8_2.c **** 	WaveDAC8_2_VDAC8_SetSpeed(WaveDAC8_2_HIGHSPEED);
 238              		.loc 1 45 0
 239 0002 FFF7FEFF 		bl	WaveDAC8_2_VDAC8_Init
 240              	.LVL25:
  46:Generated_Source\PSoC5/WaveDAC8_2.c **** 	WaveDAC8_2_VDAC8_SetRange(WaveDAC8_2_DAC_RANGE);
 241              		.loc 1 46 0
 242 0006 0220     		movs	r0, #2
 243 0008 FFF7FEFF 		bl	WaveDAC8_2_VDAC8_SetSpeed
 244              	.LVL26:
  47:Generated_Source\PSoC5/WaveDAC8_2.c **** 
 245              		.loc 1 47 0
 246 000c 0020     		movs	r0, #0
 247 000e FFF7FEFF 		bl	WaveDAC8_2_VDAC8_SetRange
 248              	.LVL27:
  58:Generated_Source\PSoC5/WaveDAC8_2.c **** 	WaveDAC8_2_Wave2TD = CyDmaTdAllocate();
 249              		.loc 1 58 0
 250 0012 FFF7FEFF 		bl	CyDmaTdAllocate
 251              	.LVL28:
 252 0016 084C     		ldr	r4, .L19
 253 0018 A070     		strb	r0, [r4, #2]
  59:Generated_Source\PSoC5/WaveDAC8_2.c **** 	
 254              		.loc 1 59 0
 255 001a FFF7FEFF 		bl	CyDmaTdAllocate
 256              	.LVL29:
 257 001e E070     		strb	r0, [r4, #3]
  62:Generated_Source\PSoC5/WaveDAC8_2.c **** 	WaveDAC8_2_Wave2Setup(WaveDAC8_2_wave2, WaveDAC8_2_WAVE2_LENGTH) ;
 258              		.loc 1 62 0
 259 0020 064C     		ldr	r4, .L19+4
 260 0022 4FF4E271 		mov	r1, #452
 261 0026 2046     		mov	r0, r4
 262 0028 FFF7FEFF 		bl	WaveDAC8_2_Wave1Setup
 263              	.LVL30:
  63:Generated_Source\PSoC5/WaveDAC8_2.c **** 	
 264              		.loc 1 63 0
 265 002c 6421     		movs	r1, #100
 266 002e 04F5E270 		add	r0, r4, #452
 267 0032 FFF7FEFF 		bl	WaveDAC8_2_Wave2Setup
 268              	.LVL31:
 269 0036 10BD     		pop	{r4, pc}
 270              	.L20:
 271              		.align	2
ARM GAS  C:\Users\sepp2\AppData\Local\Temp\cc8ACn6g.s 			page 11


 272              	.L19:
 273 0038 00000000 		.word	.LANCHOR0
 274 003c 00000000 		.word	.LANCHOR1
 275              		.cfi_endproc
 276              	.LFE0:
 277              		.size	WaveDAC8_2_Init, .-WaveDAC8_2_Init
 278              		.section	.text.WaveDAC8_2_Start,"ax",%progbits
 279              		.align	2
 280              		.global	WaveDAC8_2_Start
 281              		.thumb
 282              		.thumb_func
 283              		.type	WaveDAC8_2_Start, %function
 284              	WaveDAC8_2_Start:
 285              	.LFB2:
 130:Generated_Source\PSoC5/WaveDAC8_2.c **** 	/* If not Initialized then initialize all required hardware and software */
 286              		.loc 1 130 0
 287              		.cfi_startproc
 288              		@ args = 0, pretend = 0, frame = 0
 289              		@ frame_needed = 0, uses_anonymous_args = 0
 290 0000 08B5     		push	{r3, lr}
 291              		.cfi_def_cfa_offset 8
 292              		.cfi_offset 3, -8
 293              		.cfi_offset 14, -4
 132:Generated_Source\PSoC5/WaveDAC8_2.c **** 	{
 294              		.loc 1 132 0
 295 0002 054B     		ldr	r3, .L24
 296 0004 1B79     		ldrb	r3, [r3, #4]	@ zero_extendqisi2
 297 0006 23B9     		cbnz	r3, .L22
 134:Generated_Source\PSoC5/WaveDAC8_2.c **** 		WaveDAC8_2_initVar = 1u;
 298              		.loc 1 134 0
 299 0008 FFF7FEFF 		bl	WaveDAC8_2_Init
 300              	.LVL32:
 135:Generated_Source\PSoC5/WaveDAC8_2.c **** 	}
 301              		.loc 1 135 0
 302 000c 0122     		movs	r2, #1
 303 000e 024B     		ldr	r3, .L24
 304 0010 1A71     		strb	r2, [r3, #4]
 305              	.L22:
 138:Generated_Source\PSoC5/WaveDAC8_2.c **** }
 306              		.loc 1 138 0
 307 0012 FFF7FEFF 		bl	WaveDAC8_2_Enable
 308              	.LVL33:
 309 0016 08BD     		pop	{r3, pc}
 310              	.L25:
 311              		.align	2
 312              	.L24:
 313 0018 00000000 		.word	.LANCHOR0
 314              		.cfi_endproc
 315              	.LFE2:
 316              		.size	WaveDAC8_2_Start, .-WaveDAC8_2_Start
 317              		.section	.text.WaveDAC8_2_StartEx,"ax",%progbits
 318              		.align	2
 319              		.global	WaveDAC8_2_StartEx
 320              		.thumb
 321              		.thumb_func
 322              		.type	WaveDAC8_2_StartEx, %function
 323              	WaveDAC8_2_StartEx:
ARM GAS  C:\Users\sepp2\AppData\Local\Temp\cc8ACn6g.s 			page 12


 324              	.LFB3:
 165:Generated_Source\PSoC5/WaveDAC8_2.c **** 	WaveDAC8_2_Wave1Setup(wavePtr1, sampleSize1);
 325              		.loc 1 165 0
 326              		.cfi_startproc
 327              		@ args = 0, pretend = 0, frame = 0
 328              		@ frame_needed = 0, uses_anonymous_args = 0
 329              	.LVL34:
 330 0000 38B5     		push	{r3, r4, r5, lr}
 331              		.cfi_def_cfa_offset 16
 332              		.cfi_offset 3, -16
 333              		.cfi_offset 4, -12
 334              		.cfi_offset 5, -8
 335              		.cfi_offset 14, -4
 336 0002 1446     		mov	r4, r2
 337 0004 1D46     		mov	r5, r3
 166:Generated_Source\PSoC5/WaveDAC8_2.c **** 	WaveDAC8_2_Wave2Setup(wavePtr2, sampleSize2);
 338              		.loc 1 166 0
 339 0006 FFF7FEFF 		bl	WaveDAC8_2_Wave1Setup
 340              	.LVL35:
 167:Generated_Source\PSoC5/WaveDAC8_2.c **** 	WaveDAC8_2_Start();
 341              		.loc 1 167 0
 342 000a 2946     		mov	r1, r5
 343 000c 2046     		mov	r0, r4
 344 000e FFF7FEFF 		bl	WaveDAC8_2_Wave2Setup
 345              	.LVL36:
 168:Generated_Source\PSoC5/WaveDAC8_2.c **** }
 346              		.loc 1 168 0
 347 0012 FFF7FEFF 		bl	WaveDAC8_2_Start
 348              	.LVL37:
 349 0016 38BD     		pop	{r3, r4, r5, pc}
 350              		.cfi_endproc
 351              	.LFE3:
 352              		.size	WaveDAC8_2_StartEx, .-WaveDAC8_2_StartEx
 353              		.global	WaveDAC8_2_wave2
 354              		.global	WaveDAC8_2_wave1
 355              		.global	WaveDAC8_2_initVar
 356              		.section	.rodata
 357              		.align	2
 358              		.set	.LANCHOR1,. + 0
 359              		.type	WaveDAC8_2_wave1, %object
 360              		.size	WaveDAC8_2_wave1, 452
 361              	WaveDAC8_2_wave1:
 362 0000 80       		.byte	-128
 363 0001 81       		.byte	-127
 364 0002 83       		.byte	-125
 365 0003 85       		.byte	-123
 366 0004 86       		.byte	-122
 367 0005 88       		.byte	-120
 368 0006 8A       		.byte	-118
 369 0007 8C       		.byte	-116
 370 0008 8D       		.byte	-115
 371 0009 8F       		.byte	-113
 372 000a 91       		.byte	-111
 373 000b 93       		.byte	-109
 374 000c 94       		.byte	-108
 375 000d 96       		.byte	-106
 376 000e 98       		.byte	-104
ARM GAS  C:\Users\sepp2\AppData\Local\Temp\cc8ACn6g.s 			page 13


 377 000f 99       		.byte	-103
 378 0010 9B       		.byte	-101
 379 0011 9D       		.byte	-99
 380 0012 9E       		.byte	-98
 381 0013 A0       		.byte	-96
 382 0014 A2       		.byte	-94
 383 0015 A3       		.byte	-93
 384 0016 A5       		.byte	-91
 385 0017 A7       		.byte	-89
 386 0018 A8       		.byte	-88
 387 0019 AA       		.byte	-86
 388 001a AC       		.byte	-84
 389 001b AD       		.byte	-83
 390 001c AF       		.byte	-81
 391 001d B1       		.byte	-79
 392 001e B2       		.byte	-78
 393 001f B4       		.byte	-76
 394 0020 B5       		.byte	-75
 395 0021 B7       		.byte	-73
 396 0022 B8       		.byte	-72
 397 0023 BA       		.byte	-70
 398 0024 BB       		.byte	-69
 399 0025 BD       		.byte	-67
 400 0026 BF       		.byte	-65
 401 0027 C0       		.byte	-64
 402 0028 C1       		.byte	-63
 403 0029 C3       		.byte	-61
 404 002a C4       		.byte	-60
 405 002b C6       		.byte	-58
 406 002c C7       		.byte	-57
 407 002d C9       		.byte	-55
 408 002e CA       		.byte	-54
 409 002f CB       		.byte	-53
 410 0030 CD       		.byte	-51
 411 0031 CE       		.byte	-50
 412 0032 D0       		.byte	-48
 413 0033 D1       		.byte	-47
 414 0034 D2       		.byte	-46
 415 0035 D3       		.byte	-45
 416 0036 D5       		.byte	-43
 417 0037 D6       		.byte	-42
 418 0038 D7       		.byte	-41
 419 0039 D9       		.byte	-39
 420 003a DA       		.byte	-38
 421 003b DB       		.byte	-37
 422 003c DC       		.byte	-36
 423 003d DD       		.byte	-35
 424 003e DE       		.byte	-34
 425 003f E0       		.byte	-32
 426 0040 E1       		.byte	-31
 427 0041 E2       		.byte	-30
 428 0042 E3       		.byte	-29
 429 0043 E4       		.byte	-28
 430 0044 E5       		.byte	-27
 431 0045 E6       		.byte	-26
 432 0046 E7       		.byte	-25
 433 0047 E8       		.byte	-24
ARM GAS  C:\Users\sepp2\AppData\Local\Temp\cc8ACn6g.s 			page 14


 434 0048 E9       		.byte	-23
 435 0049 EA       		.byte	-22
 436 004a EB       		.byte	-21
 437 004b EB       		.byte	-21
 438 004c EC       		.byte	-20
 439 004d ED       		.byte	-19
 440 004e EE       		.byte	-18
 441 004f EF       		.byte	-17
 442 0050 F0       		.byte	-16
 443 0051 F0       		.byte	-16
 444 0052 F1       		.byte	-15
 445 0053 F2       		.byte	-14
 446 0054 F2       		.byte	-14
 447 0055 F3       		.byte	-13
 448 0056 F4       		.byte	-12
 449 0057 F4       		.byte	-12
 450 0058 F5       		.byte	-11
 451 0059 F6       		.byte	-10
 452 005a F6       		.byte	-10
 453 005b F7       		.byte	-9
 454 005c F7       		.byte	-9
 455 005d F8       		.byte	-8
 456 005e F8       		.byte	-8
 457 005f F9       		.byte	-7
 458 0060 F9       		.byte	-7
 459 0061 F9       		.byte	-7
 460 0062 FA       		.byte	-6
 461 0063 FA       		.byte	-6
 462 0064 FA       		.byte	-6
 463 0065 FB       		.byte	-5
 464 0066 FB       		.byte	-5
 465 0067 FB       		.byte	-5
 466 0068 FC       		.byte	-4
 467 0069 FC       		.byte	-4
 468 006a FC       		.byte	-4
 469 006b FC       		.byte	-4
 470 006c FC       		.byte	-4
 471 006d FC       		.byte	-4
 472 006e FC       		.byte	-4
 473 006f FC       		.byte	-4
 474 0070 FC       		.byte	-4
 475 0071 FC       		.byte	-4
 476 0072 FC       		.byte	-4
 477 0073 FC       		.byte	-4
 478 0074 FC       		.byte	-4
 479 0075 FC       		.byte	-4
 480 0076 FC       		.byte	-4
 481 0077 FC       		.byte	-4
 482 0078 FC       		.byte	-4
 483 0079 FC       		.byte	-4
 484 007a FC       		.byte	-4
 485 007b FB       		.byte	-5
 486 007c FB       		.byte	-5
 487 007d FB       		.byte	-5
 488 007e FA       		.byte	-6
 489 007f FA       		.byte	-6
 490 0080 FA       		.byte	-6
ARM GAS  C:\Users\sepp2\AppData\Local\Temp\cc8ACn6g.s 			page 15


 491 0081 F9       		.byte	-7
 492 0082 F9       		.byte	-7
 493 0083 F9       		.byte	-7
 494 0084 F8       		.byte	-8
 495 0085 F8       		.byte	-8
 496 0086 F7       		.byte	-9
 497 0087 F7       		.byte	-9
 498 0088 F6       		.byte	-10
 499 0089 F6       		.byte	-10
 500 008a F5       		.byte	-11
 501 008b F4       		.byte	-12
 502 008c F4       		.byte	-12
 503 008d F3       		.byte	-13
 504 008e F2       		.byte	-14
 505 008f F2       		.byte	-14
 506 0090 F1       		.byte	-15
 507 0091 F0       		.byte	-16
 508 0092 F0       		.byte	-16
 509 0093 EF       		.byte	-17
 510 0094 EE       		.byte	-18
 511 0095 ED       		.byte	-19
 512 0096 EC       		.byte	-20
 513 0097 EB       		.byte	-21
 514 0098 EB       		.byte	-21
 515 0099 EA       		.byte	-22
 516 009a E9       		.byte	-23
 517 009b E8       		.byte	-24
 518 009c E7       		.byte	-25
 519 009d E6       		.byte	-26
 520 009e E5       		.byte	-27
 521 009f E4       		.byte	-28
 522 00a0 E3       		.byte	-29
 523 00a1 E2       		.byte	-30
 524 00a2 E1       		.byte	-31
 525 00a3 E0       		.byte	-32
 526 00a4 DE       		.byte	-34
 527 00a5 DD       		.byte	-35
 528 00a6 DC       		.byte	-36
 529 00a7 DB       		.byte	-37
 530 00a8 DA       		.byte	-38
 531 00a9 D9       		.byte	-39
 532 00aa D7       		.byte	-41
 533 00ab D6       		.byte	-42
 534 00ac D5       		.byte	-43
 535 00ad D3       		.byte	-45
 536 00ae D2       		.byte	-46
 537 00af D1       		.byte	-47
 538 00b0 D0       		.byte	-48
 539 00b1 CE       		.byte	-50
 540 00b2 CD       		.byte	-51
 541 00b3 CB       		.byte	-53
 542 00b4 CA       		.byte	-54
 543 00b5 C9       		.byte	-55
 544 00b6 C7       		.byte	-57
 545 00b7 C6       		.byte	-58
 546 00b8 C4       		.byte	-60
 547 00b9 C3       		.byte	-61
ARM GAS  C:\Users\sepp2\AppData\Local\Temp\cc8ACn6g.s 			page 16


 548 00ba C1       		.byte	-63
 549 00bb C0       		.byte	-64
 550 00bc BF       		.byte	-65
 551 00bd BD       		.byte	-67
 552 00be BB       		.byte	-69
 553 00bf BA       		.byte	-70
 554 00c0 B8       		.byte	-72
 555 00c1 B7       		.byte	-73
 556 00c2 B5       		.byte	-75
 557 00c3 B4       		.byte	-76
 558 00c4 B2       		.byte	-78
 559 00c5 B1       		.byte	-79
 560 00c6 AF       		.byte	-81
 561 00c7 AD       		.byte	-83
 562 00c8 AC       		.byte	-84
 563 00c9 AA       		.byte	-86
 564 00ca A8       		.byte	-88
 565 00cb A7       		.byte	-89
 566 00cc A5       		.byte	-91
 567 00cd A3       		.byte	-93
 568 00ce A2       		.byte	-94
 569 00cf A0       		.byte	-96
 570 00d0 9E       		.byte	-98
 571 00d1 9D       		.byte	-99
 572 00d2 9B       		.byte	-101
 573 00d3 99       		.byte	-103
 574 00d4 98       		.byte	-104
 575 00d5 96       		.byte	-106
 576 00d6 94       		.byte	-108
 577 00d7 93       		.byte	-109
 578 00d8 91       		.byte	-111
 579 00d9 8F       		.byte	-113
 580 00da 8D       		.byte	-115
 581 00db 8C       		.byte	-116
 582 00dc 8A       		.byte	-118
 583 00dd 88       		.byte	-120
 584 00de 86       		.byte	-122
 585 00df 85       		.byte	-123
 586 00e0 83       		.byte	-125
 587 00e1 81       		.byte	-127
 588 00e2 80       		.byte	-128
 589 00e3 7E       		.byte	126
 590 00e4 7C       		.byte	124
 591 00e5 7A       		.byte	122
 592 00e6 79       		.byte	121
 593 00e7 77       		.byte	119
 594 00e8 75       		.byte	117
 595 00e9 73       		.byte	115
 596 00ea 72       		.byte	114
 597 00eb 70       		.byte	112
 598 00ec 6E       		.byte	110
 599 00ed 6C       		.byte	108
 600 00ee 6B       		.byte	107
 601 00ef 69       		.byte	105
 602 00f0 67       		.byte	103
 603 00f1 66       		.byte	102
 604 00f2 64       		.byte	100
ARM GAS  C:\Users\sepp2\AppData\Local\Temp\cc8ACn6g.s 			page 17


 605 00f3 62       		.byte	98
 606 00f4 61       		.byte	97
 607 00f5 5F       		.byte	95
 608 00f6 5D       		.byte	93
 609 00f7 5C       		.byte	92
 610 00f8 5A       		.byte	90
 611 00f9 58       		.byte	88
 612 00fa 57       		.byte	87
 613 00fb 55       		.byte	85
 614 00fc 53       		.byte	83
 615 00fd 52       		.byte	82
 616 00fe 50       		.byte	80
 617 00ff 4E       		.byte	78
 618 0100 4D       		.byte	77
 619 0101 4B       		.byte	75
 620 0102 4A       		.byte	74
 621 0103 48       		.byte	72
 622 0104 47       		.byte	71
 623 0105 45       		.byte	69
 624 0106 44       		.byte	68
 625 0107 42       		.byte	66
 626 0108 40       		.byte	64
 627 0109 3F       		.byte	63
 628 010a 3E       		.byte	62
 629 010b 3C       		.byte	60
 630 010c 3B       		.byte	59
 631 010d 39       		.byte	57
 632 010e 38       		.byte	56
 633 010f 36       		.byte	54
 634 0110 35       		.byte	53
 635 0111 34       		.byte	52
 636 0112 32       		.byte	50
 637 0113 31       		.byte	49
 638 0114 2F       		.byte	47
 639 0115 2E       		.byte	46
 640 0116 2D       		.byte	45
 641 0117 2C       		.byte	44
 642 0118 2A       		.byte	42
 643 0119 29       		.byte	41
 644 011a 28       		.byte	40
 645 011b 26       		.byte	38
 646 011c 25       		.byte	37
 647 011d 24       		.byte	36
 648 011e 23       		.byte	35
 649 011f 22       		.byte	34
 650 0120 21       		.byte	33
 651 0121 1F       		.byte	31
 652 0122 1E       		.byte	30
 653 0123 1D       		.byte	29
 654 0124 1C       		.byte	28
 655 0125 1B       		.byte	27
 656 0126 1A       		.byte	26
 657 0127 19       		.byte	25
 658 0128 18       		.byte	24
 659 0129 17       		.byte	23
 660 012a 16       		.byte	22
 661 012b 15       		.byte	21
ARM GAS  C:\Users\sepp2\AppData\Local\Temp\cc8ACn6g.s 			page 18


 662 012c 14       		.byte	20
 663 012d 14       		.byte	20
 664 012e 13       		.byte	19
 665 012f 12       		.byte	18
 666 0130 11       		.byte	17
 667 0131 10       		.byte	16
 668 0132 0F       		.byte	15
 669 0133 0F       		.byte	15
 670 0134 0E       		.byte	14
 671 0135 0D       		.byte	13
 672 0136 0D       		.byte	13
 673 0137 0C       		.byte	12
 674 0138 0B       		.byte	11
 675 0139 0B       		.byte	11
 676 013a 0A       		.byte	10
 677 013b 09       		.byte	9
 678 013c 09       		.byte	9
 679 013d 08       		.byte	8
 680 013e 08       		.byte	8
 681 013f 07       		.byte	7
 682 0140 07       		.byte	7
 683 0141 06       		.byte	6
 684 0142 06       		.byte	6
 685 0143 06       		.byte	6
 686 0144 05       		.byte	5
 687 0145 05       		.byte	5
 688 0146 05       		.byte	5
 689 0147 04       		.byte	4
 690 0148 04       		.byte	4
 691 0149 04       		.byte	4
 692 014a 03       		.byte	3
 693 014b 03       		.byte	3
 694 014c 03       		.byte	3
 695 014d 03       		.byte	3
 696 014e 03       		.byte	3
 697 014f 03       		.byte	3
 698 0150 03       		.byte	3
 699 0151 03       		.byte	3
 700 0152 03       		.byte	3
 701 0153 03       		.byte	3
 702 0154 03       		.byte	3
 703 0155 03       		.byte	3
 704 0156 03       		.byte	3
 705 0157 03       		.byte	3
 706 0158 03       		.byte	3
 707 0159 03       		.byte	3
 708 015a 03       		.byte	3
 709 015b 03       		.byte	3
 710 015c 03       		.byte	3
 711 015d 04       		.byte	4
 712 015e 04       		.byte	4
 713 015f 04       		.byte	4
 714 0160 05       		.byte	5
 715 0161 05       		.byte	5
 716 0162 05       		.byte	5
 717 0163 06       		.byte	6
 718 0164 06       		.byte	6
ARM GAS  C:\Users\sepp2\AppData\Local\Temp\cc8ACn6g.s 			page 19


 719 0165 06       		.byte	6
 720 0166 07       		.byte	7
 721 0167 07       		.byte	7
 722 0168 08       		.byte	8
 723 0169 08       		.byte	8
 724 016a 09       		.byte	9
 725 016b 09       		.byte	9
 726 016c 0A       		.byte	10
 727 016d 0B       		.byte	11
 728 016e 0B       		.byte	11
 729 016f 0C       		.byte	12
 730 0170 0D       		.byte	13
 731 0171 0D       		.byte	13
 732 0172 0E       		.byte	14
 733 0173 0F       		.byte	15
 734 0174 0F       		.byte	15
 735 0175 10       		.byte	16
 736 0176 11       		.byte	17
 737 0177 12       		.byte	18
 738 0178 13       		.byte	19
 739 0179 14       		.byte	20
 740 017a 14       		.byte	20
 741 017b 15       		.byte	21
 742 017c 16       		.byte	22
 743 017d 17       		.byte	23
 744 017e 18       		.byte	24
 745 017f 19       		.byte	25
 746 0180 1A       		.byte	26
 747 0181 1B       		.byte	27
 748 0182 1C       		.byte	28
 749 0183 1D       		.byte	29
 750 0184 1E       		.byte	30
 751 0185 1F       		.byte	31
 752 0186 21       		.byte	33
 753 0187 22       		.byte	34
 754 0188 23       		.byte	35
 755 0189 24       		.byte	36
 756 018a 25       		.byte	37
 757 018b 26       		.byte	38
 758 018c 28       		.byte	40
 759 018d 29       		.byte	41
 760 018e 2A       		.byte	42
 761 018f 2C       		.byte	44
 762 0190 2D       		.byte	45
 763 0191 2E       		.byte	46
 764 0192 2F       		.byte	47
 765 0193 31       		.byte	49
 766 0194 32       		.byte	50
 767 0195 34       		.byte	52
 768 0196 35       		.byte	53
 769 0197 36       		.byte	54
 770 0198 38       		.byte	56
 771 0199 39       		.byte	57
 772 019a 3B       		.byte	59
 773 019b 3C       		.byte	60
 774 019c 3E       		.byte	62
 775 019d 3F       		.byte	63
ARM GAS  C:\Users\sepp2\AppData\Local\Temp\cc8ACn6g.s 			page 20


 776 019e 40       		.byte	64
 777 019f 42       		.byte	66
 778 01a0 44       		.byte	68
 779 01a1 45       		.byte	69
 780 01a2 47       		.byte	71
 781 01a3 48       		.byte	72
 782 01a4 4A       		.byte	74
 783 01a5 4B       		.byte	75
 784 01a6 4D       		.byte	77
 785 01a7 4E       		.byte	78
 786 01a8 50       		.byte	80
 787 01a9 52       		.byte	82
 788 01aa 53       		.byte	83
 789 01ab 55       		.byte	85
 790 01ac 57       		.byte	87
 791 01ad 58       		.byte	88
 792 01ae 5A       		.byte	90
 793 01af 5C       		.byte	92
 794 01b0 5D       		.byte	93
 795 01b1 5F       		.byte	95
 796 01b2 61       		.byte	97
 797 01b3 62       		.byte	98
 798 01b4 64       		.byte	100
 799 01b5 66       		.byte	102
 800 01b6 67       		.byte	103
 801 01b7 69       		.byte	105
 802 01b8 6B       		.byte	107
 803 01b9 6C       		.byte	108
 804 01ba 6E       		.byte	110
 805 01bb 70       		.byte	112
 806 01bc 72       		.byte	114
 807 01bd 73       		.byte	115
 808 01be 75       		.byte	117
 809 01bf 77       		.byte	119
 810 01c0 79       		.byte	121
 811 01c1 7A       		.byte	122
 812 01c2 7C       		.byte	124
 813 01c3 7E       		.byte	126
 814              		.type	WaveDAC8_2_wave2, %object
 815              		.size	WaveDAC8_2_wave2, 100
 816              	WaveDAC8_2_wave2:
 817 01c4 80       		.byte	-128
 818 01c5 80       		.byte	-128
 819 01c6 80       		.byte	-128
 820 01c7 80       		.byte	-128
 821 01c8 80       		.byte	-128
 822 01c9 80       		.byte	-128
 823 01ca 80       		.byte	-128
 824 01cb 80       		.byte	-128
 825 01cc 80       		.byte	-128
 826 01cd 80       		.byte	-128
 827 01ce 80       		.byte	-128
 828 01cf 80       		.byte	-128
 829 01d0 80       		.byte	-128
 830 01d1 80       		.byte	-128
 831 01d2 80       		.byte	-128
 832 01d3 80       		.byte	-128
ARM GAS  C:\Users\sepp2\AppData\Local\Temp\cc8ACn6g.s 			page 21


 833 01d4 80       		.byte	-128
 834 01d5 80       		.byte	-128
 835 01d6 80       		.byte	-128
 836 01d7 80       		.byte	-128
 837 01d8 80       		.byte	-128
 838 01d9 80       		.byte	-128
 839 01da 80       		.byte	-128
 840 01db 80       		.byte	-128
 841 01dc 80       		.byte	-128
 842 01dd 80       		.byte	-128
 843 01de 80       		.byte	-128
 844 01df 80       		.byte	-128
 845 01e0 80       		.byte	-128
 846 01e1 80       		.byte	-128
 847 01e2 80       		.byte	-128
 848 01e3 80       		.byte	-128
 849 01e4 80       		.byte	-128
 850 01e5 80       		.byte	-128
 851 01e6 80       		.byte	-128
 852 01e7 80       		.byte	-128
 853 01e8 80       		.byte	-128
 854 01e9 80       		.byte	-128
 855 01ea 80       		.byte	-128
 856 01eb 80       		.byte	-128
 857 01ec 80       		.byte	-128
 858 01ed 80       		.byte	-128
 859 01ee 80       		.byte	-128
 860 01ef 80       		.byte	-128
 861 01f0 80       		.byte	-128
 862 01f1 80       		.byte	-128
 863 01f2 80       		.byte	-128
 864 01f3 80       		.byte	-128
 865 01f4 80       		.byte	-128
 866 01f5 80       		.byte	-128
 867 01f6 80       		.byte	-128
 868 01f7 80       		.byte	-128
 869 01f8 80       		.byte	-128
 870 01f9 80       		.byte	-128
 871 01fa 80       		.byte	-128
 872 01fb 80       		.byte	-128
 873 01fc 80       		.byte	-128
 874 01fd 80       		.byte	-128
 875 01fe 80       		.byte	-128
 876 01ff 80       		.byte	-128
 877 0200 80       		.byte	-128
 878 0201 80       		.byte	-128
 879 0202 80       		.byte	-128
 880 0203 80       		.byte	-128
 881 0204 80       		.byte	-128
 882 0205 80       		.byte	-128
 883 0206 80       		.byte	-128
 884 0207 80       		.byte	-128
 885 0208 80       		.byte	-128
 886 0209 80       		.byte	-128
 887 020a 80       		.byte	-128
 888 020b 80       		.byte	-128
 889 020c 80       		.byte	-128
ARM GAS  C:\Users\sepp2\AppData\Local\Temp\cc8ACn6g.s 			page 22


 890 020d 80       		.byte	-128
 891 020e 80       		.byte	-128
 892 020f 80       		.byte	-128
 893 0210 80       		.byte	-128
 894 0211 80       		.byte	-128
 895 0212 80       		.byte	-128
 896 0213 80       		.byte	-128
 897 0214 80       		.byte	-128
 898 0215 80       		.byte	-128
 899 0216 80       		.byte	-128
 900 0217 80       		.byte	-128
 901 0218 80       		.byte	-128
 902 0219 80       		.byte	-128
 903 021a 80       		.byte	-128
 904 021b 80       		.byte	-128
 905 021c 80       		.byte	-128
 906 021d 80       		.byte	-128
 907 021e 80       		.byte	-128
 908 021f 80       		.byte	-128
 909 0220 80       		.byte	-128
 910 0221 80       		.byte	-128
 911 0222 80       		.byte	-128
 912 0223 80       		.byte	-128
 913 0224 80       		.byte	-128
 914 0225 80       		.byte	-128
 915 0226 80       		.byte	-128
 916 0227 80       		.byte	-128
 917              		.bss
 918              		.set	.LANCHOR0,. + 0
 919              		.type	WaveDAC8_2_Wave1Chan, %object
 920              		.size	WaveDAC8_2_Wave1Chan, 1
 921              	WaveDAC8_2_Wave1Chan:
 922 0000 00       		.space	1
 923              		.type	WaveDAC8_2_Wave2Chan, %object
 924              		.size	WaveDAC8_2_Wave2Chan, 1
 925              	WaveDAC8_2_Wave2Chan:
 926 0001 00       		.space	1
 927              		.type	WaveDAC8_2_Wave1TD, %object
 928              		.size	WaveDAC8_2_Wave1TD, 1
 929              	WaveDAC8_2_Wave1TD:
 930 0002 00       		.space	1
 931              		.type	WaveDAC8_2_Wave2TD, %object
 932              		.size	WaveDAC8_2_Wave2TD, 1
 933              	WaveDAC8_2_Wave2TD:
 934 0003 00       		.space	1
 935              		.type	WaveDAC8_2_initVar, %object
 936              		.size	WaveDAC8_2_initVar, 1
 937              	WaveDAC8_2_initVar:
 938 0004 00       		.space	1
 939              		.text
 940              	.Letext0:
 941              		.file 2 "Generated_Source\\PSoC5\\cytypes.h"
 942              		.file 3 "Generated_Source\\PSoC5/WaveDAC8_2_VDAC8.h"
 943              		.file 4 "Generated_Source\\PSoC5/CYDMAC.H"
 944              		.file 5 "Generated_Source\\PSoC5/WaveDAC8_2_DacClk.h"
 945              		.file 6 "Generated_Source\\PSoC5/WaveDAC8_2_Wave1_DMA_dma.h"
 946              		.file 7 "Generated_Source\\PSoC5/WaveDAC8_2_Wave2_DMA_dma.h"
ARM GAS  C:\Users\sepp2\AppData\Local\Temp\cc8ACn6g.s 			page 23

